ARM GAS  C:\Users\THOMAS~1.CAM\AppData\Local\Temp\cco4TuUn.s 			page 1


   1              		.cpu cortex-m4
   2              		.eabi_attribute 27, 1
   3              		.eabi_attribute 28, 1
   4              		.eabi_attribute 20, 1
   5              		.eabi_attribute 21, 1
   6              		.eabi_attribute 23, 3
   7              		.eabi_attribute 24, 1
   8              		.eabi_attribute 25, 1
   9              		.eabi_attribute 26, 1
  10              		.eabi_attribute 30, 2
  11              		.eabi_attribute 34, 1
  12              		.eabi_attribute 18, 4
  13              		.file	"Platform.cpp"
  14              		.text
  15              		.section	.text._ZL12FanInterrupt17CallbackParameter,"ax",%progbits
  16              		.align	1
  17              		.p2align 2,,3
  18              		.syntax unified
  19              		.thumb
  20              		.thumb_func
  21              		.fpu fpv4-sp-d16
  22              		.type	_ZL12FanInterrupt17CallbackParameter, %function
  23              	_ZL12FanInterrupt17CallbackParameter:
  24              		@ args = 0, pretend = 0, frame = 0
  25              		@ frame_needed = 0, uses_anonymous_args = 0
  26 0000 38B5     		push	{r3, r4, r5, lr}
  27 0002 094C     		ldr	r4, .L6
  28 0004 2368     		ldr	r3, [r4]
  29 0006 0133     		adds	r3, r3, #1
  30 0008 202B     		cmp	r3, #32
  31 000a 2360     		str	r3, [r4]
  32 000c 00D0     		beq	.L5
  33 000e 38BD     		pop	{r3, r4, r5, pc}
  34              	.L5:
  35 0010 FFF7FEFF 		bl	micros
  36 0014 054A     		ldr	r2, .L6+4
  37 0016 064D     		ldr	r5, .L6+8
  38 0018 1368     		ldr	r3, [r2]
  39 001a 0021     		movs	r1, #0
  40 001c C31A     		subs	r3, r0, r3
  41 001e 2B60     		str	r3, [r5]
  42 0020 2160     		str	r1, [r4]
  43 0022 1060     		str	r0, [r2]
  44 0024 38BD     		pop	{r3, r4, r5, pc}
  45              	.L7:
  46 0026 00BF     		.align	2
  47              	.L6:
  48 0028 00000000 		.word	.LANCHOR0
  49 002c 00000000 		.word	.LANCHOR1
  50 0030 00000000 		.word	.LANCHOR2
  51              		.size	_ZL12FanInterrupt17CallbackParameter, .-_ZL12FanInterrupt17CallbackParameter
  52              		.section	.text._ZN8Platform13DisableDriverEj.part.28,"ax",%progbits
  53              		.align	1
  54              		.p2align 2,,3
  55              		.syntax unified
  56              		.thumb
  57              		.thumb_func
ARM GAS  C:\Users\THOMAS~1.CAM\AppData\Local\Temp\cco4TuUn.s 			page 2


  58              		.fpu fpv4-sp-d16
  59              		.type	_ZN8Platform13DisableDriverEj.part.28, %function
  60              	_ZN8Platform13DisableDriverEj.part.28:
  61              		@ args = 0, pretend = 0, frame = 0
  62              		@ frame_needed = 0, uses_anonymous_args = 0
  63 0000 10B5     		push	{r4, lr}
  64 0002 D0F8C023 		ldr	r2, [r0, #960]
  65 0006 8A42     		cmp	r2, r1
  66 0008 0446     		mov	r4, r0
  67 000a 08D9     		bls	.L9
  68 000c 0846     		mov	r0, r1
  69 000e 0444     		add	r4, r4, r0
  70 0010 0021     		movs	r1, #0
  71 0012 FFF7FEFF 		bl	_ZN12SmartDrivers11EnableDriveEjb
  72 0016 0023     		movs	r3, #0
  73 0018 84F80C31 		strb	r3, [r4, #268]
  74 001c 10BD     		pop	{r4, pc}
  75              	.L9:
  76 001e 0C44     		add	r4, r4, r1
  77 0020 064A     		ldr	r2, .L12
  78 0022 94F92431 		ldrsb	r3, [r4, #292]
  79 0026 505C     		ldrb	r0, [r2, r1]	@ zero_extendqisi2
  80 0028 002B     		cmp	r3, #0
  81 002a CCBF     		ite	gt
  82 002c 0021     		movgt	r1, #0
  83 002e 0121     		movle	r1, #1
  84 0030 FFF7FEFF 		bl	digitalWrite
  85 0034 0023     		movs	r3, #0
  86 0036 84F80C31 		strb	r3, [r4, #268]
  87 003a 10BD     		pop	{r4, pc}
  88              	.L13:
  89              		.align	2
  90              	.L12:
  91 003c 00000000 		.word	.LANCHOR3
  92              		.size	_ZN8Platform13DisableDriverEj.part.28, .-_ZN8Platform13DisableDriverEj.part.28
  93              		.section	.text._ZN8Platform18UpdateMotorCurrentEj.part.29,"ax",%progbits
  94              		.align	1
  95              		.p2align 2,,3
  96              		.syntax unified
  97              		.thumb
  98              		.thumb_func
  99              		.fpu fpv4-sp-d16
 100              		.type	_ZN8Platform18UpdateMotorCurrentEj.part.29, %function
 101              	_ZN8Platform18UpdateMotorCurrentEj.part.29:
 102              		@ args = 0, pretend = 0, frame = 0
 103              		@ frame_needed = 0, uses_anonymous_args = 0
 104              		@ link register save eliminated.
 105 0000 4218     		adds	r2, r0, r1
 106 0002 00EB8103 		add	r3, r0, r1, lsl #2
 107 0006 92F80C21 		ldrb	r2, [r2, #268]	@ zero_extendqisi2
 108 000a 93EDA50A 		vldr.32	s0, [r3, #660]
 109 000e 012A     		cmp	r2, #1
 110 0010 18BF     		it	ne
 111 0012 D3EDB17A 		vldrne.32	s15, [r3, #708]
 112 0016 D0F8C033 		ldr	r3, [r0, #960]
 113 001a 08BF     		it	eq
 114 001c D0EDEF7A 		vldreq.32	s15, [r0, #956]
ARM GAS  C:\Users\THOMAS~1.CAM\AppData\Local\Temp\cco4TuUn.s 			page 3


 115 0020 9942     		cmp	r1, r3
 116 0022 20EE270A 		vmul.f32	s0, s0, s15
 117 0026 00D3     		bcc	.L18
 118 0028 7047     		bx	lr
 119              	.L18:
 120 002a 0846     		mov	r0, r1
 121 002c FFF7FEBF 		b	_ZN12SmartDrivers10SetCurrentEjf
 122              		.size	_ZN8Platform18UpdateMotorCurrentEj.part.29, .-_ZN8Platform18UpdateMotorCurrentEj.part.29
 123              		.section	.text._ZN8Platform16SetDriverCurrentEjfi.part.31,"ax",%progbits
 124              		.align	1
 125              		.p2align 2,,3
 126              		.syntax unified
 127              		.thumb
 128              		.thumb_func
 129              		.fpu fpv4-sp-d16
 130              		.type	_ZN8Platform16SetDriverCurrentEjfi.part.31, %function
 131              	_ZN8Platform16SetDriverCurrentEjfi.part.31:
 132              		@ args = 0, pretend = 0, frame = 8
 133              		@ frame_needed = 0, uses_anonymous_args = 0
 134 0000 10B5     		push	{r4, lr}
 135 0002 40F29133 		movw	r3, #913
 136 0006 9A42     		cmp	r2, r3
 137 0008 82B0     		sub	sp, sp, #8
 138 000a 0446     		mov	r4, r0
 139 000c 22D0     		beq	.L21
 140 000e 40F29533 		movw	r3, #917
 141 0012 9A42     		cmp	r2, r3
 142 0014 13D0     		beq	.L22
 143 0016 40F28A33 		movw	r3, #906
 144 001a 9A42     		cmp	r2, r3
 145 001c 05D0     		beq	.L25
 146 001e 2046     		mov	r0, r4
 147 0020 02B0     		add	sp, sp, #8
 148              		@ sp needed
 149 0022 BDE81040 		pop	{r4, lr}
 150 0026 FFF7FEBF 		b	_ZN8Platform18UpdateMotorCurrentEj.part.29
 151              	.L25:
 152 002a 00EB8103 		add	r3, r0, r1, lsl #2
 153 002e 2046     		mov	r0, r4
 154 0030 83EDA50A 		vstr.32	s0, [r3, #660]
 155 0034 02B0     		add	sp, sp, #8
 156              		@ sp needed
 157 0036 BDE81040 		pop	{r4, lr}
 158 003a FFF7FEBF 		b	_ZN8Platform18UpdateMotorCurrentEj.part.29
 159              	.L22:
 160 003e 0846     		mov	r0, r1
 161 0040 0191     		str	r1, [sp, #4]
 162 0042 FFF7FEFF 		bl	_ZN12SmartDrivers27SetStandstillCurrentPercentEjf
 163 0046 0199     		ldr	r1, [sp, #4]
 164 0048 2046     		mov	r0, r4
 165 004a 02B0     		add	sp, sp, #8
 166              		@ sp needed
 167 004c BDE81040 		pop	{r4, lr}
 168 0050 FFF7FEBF 		b	_ZN8Platform18UpdateMotorCurrentEj.part.29
 169              	.L21:
 170 0054 9FED067A 		vldr.32	s14, .L26
 171 0058 60EE077A 		vmul.f32	s15, s0, s14
ARM GAS  C:\Users\THOMAS~1.CAM\AppData\Local\Temp\cco4TuUn.s 			page 4


 172 005c 00EB8103 		add	r3, r0, r1, lsl #2
 173 0060 2046     		mov	r0, r4
 174 0062 C3EDB17A 		vstr.32	s15, [r3, #708]
 175 0066 02B0     		add	sp, sp, #8
 176              		@ sp needed
 177 0068 BDE81040 		pop	{r4, lr}
 178 006c FFF7FEBF 		b	_ZN8Platform18UpdateMotorCurrentEj.part.29
 179              	.L27:
 180              		.align	2
 181              	.L26:
 182 0070 0AD7233C 		.word	1008981770
 183              		.size	_ZN8Platform16SetDriverCurrentEjfi.part.31, .-_ZN8Platform16SetDriverCurrentEjfi.part.31
 184              		.section	.text._ZN8Platform11AtxPowerOffEb.part.35,"ax",%progbits
 185              		.align	1
 186              		.p2align 2,,3
 187              		.syntax unified
 188              		.thumb
 189              		.thumb_func
 190              		.fpu fpv4-sp-d16
 191              		.type	_ZN8Platform11AtxPowerOffEb.part.35, %function
 192              	_ZN8Platform11AtxPowerOffEb.part.35:
 193              		@ args = 0, pretend = 0, frame = 0
 194              		@ frame_needed = 0, uses_anonymous_args = 0
 195 0000 036C     		ldr	r3, [r0, #64]
 196 0002 0022     		movs	r2, #0
 197 0004 80F8F829 		strb	r2, [r0, #2552]
 198 0008 C3B1     		cbz	r3, .L34
 199 000a D0B5     		push	{r4, r6, r7, lr}
 200 000c 00F51D62 		add	r2, r0, #2512
 201 0010 D2E90067 		ldrd	r6, [r2]
 202 0014 82B0     		sub	sp, sp, #8
 203 0016 0446     		mov	r4, r0
 204 0018 0A4A     		ldr	r2, .L37
 205 001a 0092     		str	r2, [sp]
 206 001c 1846     		mov	r0, r3
 207 001e 3246     		mov	r2, r6
 208 0020 3B46     		mov	r3, r7
 209 0022 FFF7FEFF 		bl	_ZN6Logger10LogMessageExPKc
 210 0026 206C     		ldr	r0, [r4, #64]
 211 0028 0121     		movs	r1, #1
 212 002a FFF7FEFF 		bl	_ZN6Logger5FlushEb
 213 002e 0021     		movs	r1, #0
 214 0030 4F20     		movs	r0, #79
 215 0032 02B0     		add	sp, sp, #8
 216              		@ sp needed
 217 0034 BDE8D040 		pop	{r4, r6, r7, lr}
 218 0038 FFF7FEBF 		b	_ZN6IoPort12WriteDigitalEhb
 219              	.L34:
 220 003c 0021     		movs	r1, #0
 221 003e 4F20     		movs	r0, #79
 222 0040 FFF7FEBF 		b	_ZN6IoPort12WriteDigitalEhb
 223              	.L38:
 224              		.align	2
 225              	.L37:
 226 0044 00000000 		.word	.LC8
 227              		.size	_ZN8Platform11AtxPowerOffEb.part.35, .-_ZN8Platform11AtxPowerOffEb.part.35
 228              		.global	__aeabi_f2d
ARM GAS  C:\Users\THOMAS~1.CAM\AppData\Local\Temp\cco4TuUn.s 			page 5


 229              		.section	.text._ZN8Platform15WriteAxisLimitsEP9FileStoremPKfi.part.41,"ax",%progbits
 230              		.align	1
 231              		.p2align 2,,3
 232              		.syntax unified
 233              		.thumb
 234              		.thumb_func
 235              		.fpu fpv4-sp-d16
 236              		.type	_ZN8Platform15WriteAxisLimitsEP9FileStoremPKfi.part.41, %function
 237              	_ZN8Platform15WriteAxisLimitsEP9FileStoremPKfi.part.41:
 238              		@ args = 0, pretend = 0, frame = 0
 239              		@ frame_needed = 0, uses_anonymous_args = 0
 240 0000 2DE9F04F 		push	{r4, r5, r6, r7, r8, r9, r10, fp, lr}
 241 0004 8246     		mov	r10, r0
 242 0006 83B0     		sub	sp, sp, #12
 243 0008 0D46     		mov	r5, r1
 244 000a 9146     		mov	r9, r2
 245 000c 1849     		ldr	r1, .L48
 246 000e 1948     		ldr	r0, .L48+4
 247 0010 DFF86880 		ldr	r8, .L48+12
 248 0014 184F     		ldr	r7, .L48+8
 249 0016 174E     		ldr	r6, .L48+4
 250 0018 1A46     		mov	r2, r3
 251 001a FFF7FEFF 		bl	_ZNK9StringRef6printfEPKcz
 252 001e 0024     		movs	r4, #0
 253 0020 02E0     		b	.L41
 254              	.L40:
 255 0022 0134     		adds	r4, r4, #1
 256 0024 092C     		cmp	r4, #9
 257 0026 17D0     		beq	.L47
 258              	.L41:
 259 0028 25FA04F3 		lsr	r3, r5, r4
 260 002c DB07     		lsls	r3, r3, #31
 261 002e F8D5     		bpl	.L40
 262 0030 D8F81830 		ldr	r3, [r8, #24]	@ unaligned
 263 0034 09EB8402 		add	r2, r9, r4, lsl #2
 264 0038 2344     		add	r3, r3, r4
 265 003a 1068     		ldr	r0, [r2]	@ float
 266 003c 93F856B4 		ldrb	fp, [r3, #1110]	@ zero_extendqisi2
 267 0040 FFF7FEFF 		bl	__aeabi_f2d
 268 0044 0134     		adds	r4, r4, #1
 269 0046 CDE90001 		strd	r0, [sp]
 270 004a 5A46     		mov	r2, fp
 271 004c 3946     		mov	r1, r7
 272 004e 3046     		mov	r0, r6
 273 0050 FFF7FEFF 		bl	_ZNK9StringRef4catfEPKcz
 274 0054 092C     		cmp	r4, #9
 275 0056 E7D1     		bne	.L41
 276              	.L47:
 277 0058 064C     		ldr	r4, .L48+4
 278 005a 0A21     		movs	r1, #10
 279 005c 2046     		mov	r0, r4
 280 005e FFF7FEFF 		bl	_ZNK9StringRef3catEc
 281 0062 2168     		ldr	r1, [r4]
 282 0064 5046     		mov	r0, r10
 283 0066 03B0     		add	sp, sp, #12
 284              		@ sp needed
 285 0068 BDE8F04F 		pop	{r4, r5, r6, r7, r8, r9, r10, fp, lr}
ARM GAS  C:\Users\THOMAS~1.CAM\AppData\Local\Temp\cco4TuUn.s 			page 6


 286 006c FFF7FEBF 		b	_ZN9FileStore5WriteEPKc
 287              	.L49:
 288              		.align	2
 289              	.L48:
 290 0070 00000000 		.word	.LC9
 291 0074 00000000 		.word	scratchString
 292 0078 0C000000 		.word	.LC10
 293 007c 00000000 		.word	reprap
 294              		.size	_ZN8Platform15WriteAxisLimitsEP9FileStoremPKfi.part.41, .-_ZN8Platform15WriteAxisLimitsEP9Fi
 295              		.section	.text._Z10UrgentInitv,"ax",%progbits
 296              		.align	1
 297              		.p2align 2,,3
 298              		.global	_Z10UrgentInitv
 299              		.syntax unified
 300              		.thumb
 301              		.thumb_func
 302              		.fpu fpv4-sp-d16
 303              		.type	_Z10UrgentInitv, %function
 304              	_Z10UrgentInitv:
 305              		@ args = 0, pretend = 0, frame = 0
 306              		@ frame_needed = 0, uses_anonymous_args = 0
 307 0000 2DE9F843 		push	{r3, r4, r5, r6, r7, r8, r9, lr}
 308 0004 104C     		ldr	r4, .L55
 309 0006 DFF84880 		ldr	r8, .L55+8
 310 000a 104F     		ldr	r7, .L55+4
 311 000c 04F10B09 		add	r9, r4, #11
 312 0010 4E26     		movs	r6, #78
 313 0012 4B25     		movs	r5, #75
 314 0014 4620     		movs	r0, #70
 315 0016 05E0     		b	.L52
 316              	.L54:
 317 0018 14F8010F 		ldrb	r0, [r4, #1]!	@ zero_extendqisi2
 318 001c 18F8015F 		ldrb	r5, [r8, #1]!	@ zero_extendqisi2
 319 0020 17F8016F 		ldrb	r6, [r7, #1]!	@ zero_extendqisi2
 320              	.L52:
 321 0024 0022     		movs	r2, #0
 322 0026 0321     		movs	r1, #3
 323 0028 FFF7FEFF 		bl	pinModeDuet
 324 002c 2846     		mov	r0, r5
 325 002e 0022     		movs	r2, #0
 326 0030 0321     		movs	r1, #3
 327 0032 FFF7FEFF 		bl	pinModeDuet
 328 0036 3046     		mov	r0, r6
 329 0038 0022     		movs	r2, #0
 330 003a 0421     		movs	r1, #4
 331 003c FFF7FEFF 		bl	pinModeDuet
 332 0040 4C45     		cmp	r4, r9
 333 0042 E9D1     		bne	.L54
 334 0044 BDE8F883 		pop	{r3, r4, r5, r6, r7, r8, r9, pc}
 335              	.L56:
 336              		.align	2
 337              	.L55:
 338 0048 00000000 		.word	.LANCHOR4
 339 004c 00000000 		.word	.LANCHOR3
 340 0050 00000000 		.word	.LANCHOR5
 341              		.size	_Z10UrgentInitv, .-_Z10UrgentInitv
 342              		.section	.text.setup,"ax",%progbits
ARM GAS  C:\Users\THOMAS~1.CAM\AppData\Local\Temp\cco4TuUn.s 			page 7


 343              		.align	1
 344              		.p2align 2,,3
 345              		.global	setup
 346              		.syntax unified
 347              		.thumb
 348              		.thumb_func
 349              		.fpu fpv4-sp-d16
 350              		.type	setup, %function
 351              	setup:
 352              		@ args = 0, pretend = 0, frame = 0
 353              		@ frame_needed = 0, uses_anonymous_args = 0
 354 0000 10B5     		push	{r4, lr}
 355 0002 0020     		movs	r0, #0
 356 0004 FFF7FEFF 		bl	sbrk
 357 0008 6A46     		mov	r2, sp
 358 000a 00F11003 		add	r3, r0, #16
 359 000e 9A42     		cmp	r2, r3
 360 0010 06D9     		bls	.L58
 361 0012 ADF11002 		sub	r2, sp, #16
 362 0016 A523     		movs	r3, #165
 363              	.L59:
 364 0018 00F8013B 		strb	r3, [r0], #1
 365 001c 9042     		cmp	r0, r2
 366 001e FBD1     		bne	.L59
 367              	.L58:
 368 0020 064A     		ldr	r2, .L62
 369 0022 0749     		ldr	r1, .L62+4
 370 0024 5369     		ldr	r3, [r2, #20]
 371 0026 074C     		ldr	r4, .L62+8
 372 0028 0748     		ldr	r0, .L62+12
 373 002a 43F01003 		orr	r3, r3, #16
 374 002e 5361     		str	r3, [r2, #20]
 375 0030 8C60     		str	r4, [r1, #8]
 376 0032 BDE81040 		pop	{r4, lr}
 377 0036 FFF7FEBF 		b	_ZN6RepRap4InitEv
 378              	.L63:
 379 003a 00BF     		.align	2
 380              	.L62:
 381 003c 00ED00E0 		.word	-536810240
 382 0040 00180E40 		.word	1074665472
 383 0044 010000A5 		.word	-1526726655
 384 0048 00000000 		.word	reprap
 385              		.size	setup, .-setup
 386              		.section	.text.loop,"ax",%progbits
 387              		.align	1
 388              		.p2align 2,,3
 389              		.global	loop
 390              		.syntax unified
 391              		.thumb
 392              		.thumb_func
 393              		.fpu fpv4-sp-d16
 394              		.type	loop, %function
 395              	loop:
 396              		@ args = 0, pretend = 0, frame = 0
 397              		@ frame_needed = 0, uses_anonymous_args = 0
 398              		@ link register save eliminated.
 399 0000 0148     		ldr	r0, .L65
ARM GAS  C:\Users\THOMAS~1.CAM\AppData\Local\Temp\cco4TuUn.s 			page 8


 400 0002 FFF7FEBF 		b	_ZN6RepRap4SpinEv
 401              	.L66:
 402 0006 00BF     		.align	2
 403              	.L65:
 404 0008 00000000 		.word	reprap
 405              		.size	loop, .-loop
 406              		.section	.text.sysTickHook,"ax",%progbits
 407              		.align	1
 408              		.p2align 2,,3
 409              		.global	sysTickHook
 410              		.syntax unified
 411              		.thumb
 412              		.thumb_func
 413              		.fpu fpv4-sp-d16
 414              		.type	sysTickHook, %function
 415              	sysTickHook:
 416              		@ args = 0, pretend = 0, frame = 0
 417              		@ frame_needed = 0, uses_anonymous_args = 0
 418 0000 08B5     		push	{r3, lr}
 419 0002 0248     		ldr	r0, .L69
 420 0004 FFF7FEFF 		bl	_ZN6RepRap4TickEv
 421 0008 0020     		movs	r0, #0
 422 000a 08BD     		pop	{r3, pc}
 423              	.L70:
 424              		.align	2
 425              	.L69:
 426 000c 00000000 		.word	reprap
 427              		.size	sysTickHook, .-sysTickHook
 428              		.section	.text.HardFault_Handler,"ax",%progbits
 429              		.align	1
 430              		.p2align 2,,3
 431              		.global	HardFault_Handler
 432              		.syntax unified
 433              		.thumb
 434              		.thumb_func
 435              		.fpu fpv4-sp-d16
 436              		.type	HardFault_Handler, %function
 437              	HardFault_Handler:
 438              		@ Naked Function: prologue and epilogue provided by programmer.
 439              		@ args = 0, pretend = 0, frame = 0
 440              		@ frame_needed = 0, uses_anonymous_args = 0
 441              		.syntax unified
 442              	@ 279 "../src/Platform.cpp" 1
 443 0000 1EF0040F 		 tst lr, #4                                                
 444 0004 0CBF     	 ite eq                                                    
 445 0006 EFF30880 	 mrseq r0, msp                                             
 446 000a EFF30980 	 mrsne r0, psp                                             
 447 000e DFF80420 	 ldr r2, handler_hf_address_const                          
 448 0012 1047     	 bx r2                                                     
 449 0014 00000000 	 handler_hf_address_const: .word hardFaultDispatcher       
 450              	
 451              	@ 0 "" 2
 452              		.thumb
 453              		.syntax unified
 454              		.size	HardFault_Handler, .-HardFault_Handler
 455              		.section	.text.WDT_Handler,"ax",%progbits
 456              		.align	1
ARM GAS  C:\Users\THOMAS~1.CAM\AppData\Local\Temp\cco4TuUn.s 			page 9


 457              		.p2align 2,,3
 458              		.global	WDT_Handler
 459              		.syntax unified
 460              		.thumb
 461              		.thumb_func
 462              		.fpu fpv4-sp-d16
 463              		.type	WDT_Handler, %function
 464              	WDT_Handler:
 465              		@ Naked Function: prologue and epilogue provided by programmer.
 466              		@ args = 0, pretend = 0, frame = 0
 467              		@ frame_needed = 0, uses_anonymous_args = 0
 468              		.syntax unified
 469              	@ 299 "../src/Platform.cpp" 1
 470 0000 1EF0040F 		 tst lr, #4                                                
 471 0004 0CBF     	 ite eq                                                    
 472 0006 EFF30880 	 mrseq r0, msp                                             
 473 000a EFF30980 	 mrsne r0, psp                                             
 474 000e DFF80420 	 ldr r2, handler_wdt_address_const                         
 475 0012 1047     	 bx r2                                                     
 476 0014 00000000 	 handler_wdt_address_const: .word wdtFaultDispatcher       
 477              	
 478              	@ 0 "" 2
 479              		.thumb
 480              		.syntax unified
 481              		.size	WDT_Handler, .-WDT_Handler
 482              		.section	.text.OtherFault_Handler,"ax",%progbits
 483              		.align	1
 484              		.p2align 2,,3
 485              		.global	OtherFault_Handler
 486              		.syntax unified
 487              		.thumb
 488              		.thumb_func
 489              		.fpu fpv4-sp-d16
 490              		.type	OtherFault_Handler, %function
 491              	OtherFault_Handler:
 492              		@ Naked Function: prologue and epilogue provided by programmer.
 493              		@ args = 0, pretend = 0, frame = 0
 494              		@ frame_needed = 0, uses_anonymous_args = 0
 495              		.syntax unified
 496              	@ 320 "../src/Platform.cpp" 1
 497 0000 1EF0040F 		 tst lr, #4                                                
 498 0004 0CBF     	 ite eq                                                    
 499 0006 EFF30880 	 mrseq r0, msp                                             
 500 000a EFF30980 	 mrsne r0, psp                                             
 501 000e DFF80420 	 ldr r2, handler_oflt_address_const                        
 502 0012 1047     	 bx r2                                                     
 503 0014 00000000 	 handler_oflt_address_const: .word otherFaultDispatcher    
 504              	
 505              	@ 0 "" 2
 506              		.thumb
 507              		.syntax unified
 508              		.size	OtherFault_Handler, .-OtherFault_Handler
 509              		.global	PendSV_Handler
 510              		.thumb_set PendSV_Handler,OtherFault_Handler
 511              		.global	DebugMon_Handler
 512              		.thumb_set DebugMon_Handler,OtherFault_Handler
 513              		.global	SVC_Handler
ARM GAS  C:\Users\THOMAS~1.CAM\AppData\Local\Temp\cco4TuUn.s 			page 10


 514              		.thumb_set SVC_Handler,OtherFault_Handler
 515              		.section	.text._ZN8PlatformC2Ev,"ax",%progbits
 516              		.align	1
 517              		.p2align 2,,3
 518              		.global	_ZN8PlatformC2Ev
 519              		.syntax unified
 520              		.thumb
 521              		.thumb_func
 522              		.fpu fpv4-sp-d16
 523              		.type	_ZN8PlatformC2Ev, %function
 524              	_ZN8PlatformC2Ev:
 525              		@ args = 0, pretend = 0, frame = 0
 526              		@ frame_needed = 0, uses_anonymous_args = 0
 527 0000 F8B5     		push	{r3, r4, r5, r6, r7, lr}
 528 0002 6049     		ldr	r1, .L83
 529 0004 0163     		str	r1, [r0, #48]	@ float
 530 0006 0025     		movs	r5, #0
 531 0008 0522     		movs	r2, #5
 532 000a 0223     		movs	r3, #2
 533 000c 0127     		movs	r7, #1
 534 000e C0E90E23 		strd	r2, r3, [r0, #56]
 535 0012 C0E90255 		strd	r5, r5, [r0, #8]
 536 0016 C0E90455 		strd	r5, r5, [r0, #16]
 537 001a C562     		str	r5, [r0, #44]
 538 001c 4563     		str	r5, [r0, #52]
 539 001e 0564     		str	r5, [r0, #64]
 540 0020 80F80451 		strb	r5, [r0, #260]
 541 0024 C0F80851 		str	r5, [r0, #264]
 542 0028 80F8D453 		strb	r5, [r0, #980]
 543 002c 80F8D653 		strb	r5, [r0, #982]
 544 0030 80F8D753 		strb	r5, [r0, #983]
 545 0034 C0F8D853 		str	r5, [r0, #984]
 546 0038 C0F8DC53 		str	r5, [r0, #988]
 547 003c 80F8FC70 		strb	r7, [r0, #252]
 548 0040 0446     		mov	r4, r0
 549 0042 00F58060 		add	r0, r0, #1024
 550 0046 FFF7FEFF 		bl	_ZN16ZProbeProgrammerC1Ev
 551              		.syntax unified
 552              	@ 470 "C:\Users\thomas.camguilhem\Documents\Duet Firmwares\RepRapFirmware-1.21_lynxrev_1.7\CoreNG\a
 553 004a EFF31083 		MRS r3, primask
 554              	@ 0 "" 2
 555              	@ 330 "C:\Users\thomas.camguilhem\Documents\Duet Firmwares\RepRapFirmware-1.21_lynxrev_1.7\CoreNG\a
 556 004e 72B6     		cpsid i
 557              	@ 0 "" 2
 558              	@ 456 "C:\Users\thomas.camguilhem\Documents\Duet Firmwares\RepRapFirmware-1.21_lynxrev_1.7\CoreNG\a
 559 0050 BFF35F8F 		dmb
 560              	@ 0 "" 2
 561              		.thumb
 562              		.syntax unified
 563 0054 4C4E     		ldr	r6, .L83+4
 564 0056 3570     		strb	r5, [r6]
 565 0058 C4F84054 		str	r5, [r4, #1088]
 566 005c C4F83C54 		str	r5, [r4, #1084]
 567 0060 84F84454 		strb	r5, [r4, #1092]
 568 0064 A4F82C54 		strh	r5, [r4, #1068]	@ movhi
 569 0068 A4F82E54 		strh	r5, [r4, #1070]	@ movhi
 570 006c A4F83054 		strh	r5, [r4, #1072]	@ movhi
ARM GAS  C:\Users\THOMAS~1.CAM\AppData\Local\Temp\cco4TuUn.s 			page 11


 571 0070 A4F83254 		strh	r5, [r4, #1074]	@ movhi
 572 0074 A4F83454 		strh	r5, [r4, #1076]	@ movhi
 573 0078 A4F83654 		strh	r5, [r4, #1078]	@ movhi
 574 007c A4F83854 		strh	r5, [r4, #1080]	@ movhi
 575 0080 A4F83A54 		strh	r5, [r4, #1082]	@ movhi
 576 0084 1BB9     		cbnz	r3, .L75
 577 0086 3770     		strb	r7, [r6]
 578              		.syntax unified
 579              	@ 456 "C:\Users\thomas.camguilhem\Documents\Duet Firmwares\RepRapFirmware-1.21_lynxrev_1.7\CoreNG\a
 580 0088 BFF35F8F 		dmb
 581              	@ 0 "" 2
 582              	@ 319 "C:\Users\thomas.camguilhem\Documents\Duet Firmwares\RepRapFirmware-1.21_lynxrev_1.7\CoreNG\a
 583 008c 62B6     		cpsie i
 584              	@ 0 "" 2
 585              		.thumb
 586              		.syntax unified
 587              	.L75:
 588              		.syntax unified
 589              	@ 470 "C:\Users\thomas.camguilhem\Documents\Duet Firmwares\RepRapFirmware-1.21_lynxrev_1.7\CoreNG\a
 590 008e EFF31082 		MRS r2, primask
 591              	@ 0 "" 2
 592              	@ 330 "C:\Users\thomas.camguilhem\Documents\Duet Firmwares\RepRapFirmware-1.21_lynxrev_1.7\CoreNG\a
 593 0092 72B6     		cpsid i
 594              	@ 0 "" 2
 595              	@ 456 "C:\Users\thomas.camguilhem\Documents\Duet Firmwares\RepRapFirmware-1.21_lynxrev_1.7\CoreNG\a
 596 0094 BFF35F8F 		dmb
 597              	@ 0 "" 2
 598              		.thumb
 599              		.syntax unified
 600 0098 0023     		movs	r3, #0
 601 009a 3370     		strb	r3, [r6]
 602 009c C4F85C34 		str	r3, [r4, #1116]
 603 00a0 C4F85834 		str	r3, [r4, #1112]
 604 00a4 84F86034 		strb	r3, [r4, #1120]
 605 00a8 A4F84834 		strh	r3, [r4, #1096]	@ movhi
 606 00ac A4F84A34 		strh	r3, [r4, #1098]	@ movhi
 607 00b0 A4F84C34 		strh	r3, [r4, #1100]	@ movhi
 608 00b4 A4F84E34 		strh	r3, [r4, #1102]	@ movhi
 609 00b8 A4F85034 		strh	r3, [r4, #1104]	@ movhi
 610 00bc A4F85234 		strh	r3, [r4, #1106]	@ movhi
 611 00c0 A4F85434 		strh	r3, [r4, #1108]	@ movhi
 612 00c4 A4F85634 		strh	r3, [r4, #1110]	@ movhi
 613 00c8 22B9     		cbnz	r2, .L76
 614 00ca 0123     		movs	r3, #1
 615 00cc 3370     		strb	r3, [r6]
 616              		.syntax unified
 617              	@ 456 "C:\Users\thomas.camguilhem\Documents\Duet Firmwares\RepRapFirmware-1.21_lynxrev_1.7\CoreNG\a
 618 00ce BFF35F8F 		dmb
 619              	@ 0 "" 2
 620              	@ 319 "C:\Users\thomas.camguilhem\Documents\Duet Firmwares\RepRapFirmware-1.21_lynxrev_1.7\CoreNG\a
 621 00d2 62B6     		cpsie i
 622              	@ 0 "" 2
 623              		.thumb
 624              		.syntax unified
 625              	.L76:
 626 00d4 04F26442 		addw	r2, r4, #1124
 627 00d8 04F5E265 		add	r5, r4, #1808
ARM GAS  C:\Users\THOMAS~1.CAM\AppData\Local\Temp\cco4TuUn.s 			page 12


 628 00dc 0021     		movs	r1, #0
 629 00de 0127     		movs	r7, #1
 630              	.L79:
 631              		.syntax unified
 632              	@ 470 "C:\Users\thomas.camguilhem\Documents\Duet Firmwares\RepRapFirmware-1.21_lynxrev_1.7\CoreNG\a
 633 00e0 EFF31080 		MRS r0, primask
 634              	@ 0 "" 2
 635              	@ 330 "C:\Users\thomas.camguilhem\Documents\Duet Firmwares\RepRapFirmware-1.21_lynxrev_1.7\CoreNG\a
 636 00e4 72B6     		cpsid i
 637              	@ 0 "" 2
 638              	@ 456 "C:\Users\thomas.camguilhem\Documents\Duet Firmwares\RepRapFirmware-1.21_lynxrev_1.7\CoreNG\a
 639 00e6 BFF35F8F 		dmb
 640              	@ 0 "" 2
 641              		.thumb
 642              		.syntax unified
 643 00ea 0023     		movs	r3, #0
 644 00ec 3170     		strb	r1, [r6]
 645 00ee 5164     		str	r1, [r2, #68]
 646 00f0 1164     		str	r1, [r2, #64]
 647 00f2 82F84810 		strb	r1, [r2, #72]
 648              	.L77:
 649 00f6 22F81310 		strh	r1, [r2, r3, lsl #1]	@ movhi
 650 00fa 0133     		adds	r3, r3, #1
 651 00fc 202B     		cmp	r3, #32
 652 00fe FAD1     		bne	.L77
 653 0100 18B9     		cbnz	r0, .L78
 654 0102 3770     		strb	r7, [r6]
 655              		.syntax unified
 656              	@ 456 "C:\Users\thomas.camguilhem\Documents\Duet Firmwares\RepRapFirmware-1.21_lynxrev_1.7\CoreNG\a
 657 0104 BFF35F8F 		dmb
 658              	@ 0 "" 2
 659              	@ 319 "C:\Users\thomas.camguilhem\Documents\Duet Firmwares\RepRapFirmware-1.21_lynxrev_1.7\CoreNG\a
 660 0108 62B6     		cpsie i
 661              	@ 0 "" 2
 662              		.thumb
 663              		.syntax unified
 664              	.L78:
 665 010a 4C32     		adds	r2, r2, #76
 666 010c AA42     		cmp	r2, r5
 667 010e E7D1     		bne	.L79
 668 0110 0025     		movs	r5, #0
 669 0112 C4F86459 		str	r5, [r4, #2404]
 670 0116 C4F88059 		str	r5, [r4, #2432]
 671 011a 84F89659 		strb	r5, [r4, #2454]
 672 011e C4F89C59 		str	r5, [r4, #2460]
 673 0122 C4F8C859 		str	r5, [r4, #2504]
 674 0126 04F51E60 		add	r0, r4, #2528
 675 012a FFF7FEFF 		bl	_ZN7PwmPortC1Ev
 676 012e 04F6E610 		addw	r0, r4, #2534
 677 0132 FFF7FEFF 		bl	_ZN7PwmPortC1Ev
 678 0136 04F6EC10 		addw	r0, r4, #2540
 679 013a FFF7FEFF 		bl	_ZN7PwmPortC1Ev
 680 013e 04F6F210 		addw	r0, r4, #2546
 681 0142 FFF7FEFF 		bl	_ZN7PwmPortC1Ev
 682 0146 84F8815A 		strb	r5, [r4, #2689]
 683 014a 84F8825A 		strb	r5, [r4, #2690]
 684 014e 1420     		movs	r0, #20
ARM GAS  C:\Users\THOMAS~1.CAM\AppData\Local\Temp\cco4TuUn.s 			page 13


 685 0150 FFF7FEFF 		bl	_Znwj
 686 0154 0346     		mov	r3, r0
 687 0156 C4F87409 		str	r0, [r4, #2420]
 688 015a 1D60     		str	r5, [r3]
 689 015c 1420     		movs	r0, #20
 690 015e FFF7FEFF 		bl	_Znwj
 691 0162 0346     		mov	r3, r0
 692 0164 C4F87809 		str	r0, [r4, #2424]
 693 0168 1D60     		str	r5, [r3]
 694 016a 40F24C70 		movw	r0, #1868
 695 016e FFF7FEFF 		bl	_Znwj
 696 0172 2146     		mov	r1, r4
 697 0174 0546     		mov	r5, r0
 698 0176 FFF7FEFF 		bl	_ZN11MassStorageC1EP8Platform
 699 017a C4F88859 		str	r5, [r4, #2440]
 700 017e 2046     		mov	r0, r4
 701 0180 F8BD     		pop	{r3, r4, r5, r6, r7, pc}
 702              	.L84:
 703 0182 00BF     		.align	2
 704              	.L83:
 705 0184 000080BF 		.word	-1082130432
 706 0188 00000000 		.word	g_interrupt_enabled
 707              		.size	_ZN8PlatformC2Ev, .-_ZN8PlatformC2Ev
 708              		.global	_ZN8PlatformC1Ev
 709              		.thumb_set _ZN8PlatformC1Ev,_ZN8PlatformC2Ev
 710              		.section	.text._ZN8Platform17SetZProbeDefaultsEv,"ax",%progbits
 711              		.align	1
 712              		.p2align 2,,3
 713              		.global	_ZN8Platform17SetZProbeDefaultsEv
 714              		.syntax unified
 715              		.thumb
 716              		.thumb_func
 717              		.fpu fpv4-sp-d16
 718              		.type	_ZN8Platform17SetZProbeDefaultsEv, %function
 719              	_ZN8Platform17SetZProbeDefaultsEv:
 720              		@ args = 0, pretend = 0, frame = 0
 721              		@ frame_needed = 0, uses_anonymous_args = 0
 722 0000 10B5     		push	{r4, lr}
 723 0002 2DED028B 		vpush.64	{d8}
 724 0006 9FED0C8A 		vldr.32	s16, .L87
 725 000a 9FED0C0A 		vldr.32	s0, .L87+4
 726 000e 0446     		mov	r4, r0
 727 0010 4430     		adds	r0, r0, #68
 728 0012 FFF7FEFF 		bl	_ZN6ZProbe4InitEf
 729 0016 04F17400 		add	r0, r4, #116
 730 001a B0EE480A 		vmov.f32	s0, s16
 731 001e FFF7FEFF 		bl	_ZN6ZProbe4InitEf
 732 0022 B0EE480A 		vmov.f32	s0, s16
 733 0026 BDEC028B 		vldm	sp!, {d8}
 734 002a 04F1A400 		add	r0, r4, #164
 735 002e BDE81040 		pop	{r4, lr}
 736 0032 FFF7FEBF 		b	_ZN6ZProbe4InitEf
 737              	.L88:
 738 0036 00BF     		.align	2
 739              	.L87:
 740 0038 3333333F 		.word	1060320051
 741 003c 00000000 		.word	0
ARM GAS  C:\Users\THOMAS~1.CAM\AppData\Local\Temp\cco4TuUn.s 			page 14


 742              		.size	_ZN8Platform17SetZProbeDefaultsEv, .-_ZN8Platform17SetZProbeDefaultsEv
 743              		.section	.text._ZN8Platform10InitZProbeEv,"ax",%progbits
 744              		.align	1
 745              		.p2align 2,,3
 746              		.global	_ZN8Platform10InitZProbeEv
 747              		.syntax unified
 748              		.thumb
 749              		.thumb_func
 750              		.fpu fpv4-sp-d16
 751              		.type	_ZN8Platform10InitZProbeEv, %function
 752              	_ZN8Platform10InitZProbeEv:
 753              		@ args = 0, pretend = 0, frame = 0
 754              		@ frame_needed = 0, uses_anonymous_args = 0
 755 0000 10B5     		push	{r4, lr}
 756 0002 0446     		mov	r4, r0
 757              		.syntax unified
 758              	@ 470 "C:\Users\thomas.camguilhem\Documents\Duet Firmwares\RepRapFirmware-1.21_lynxrev_1.7\CoreNG\a
 759 0004 EFF31081 		MRS r1, primask
 760              	@ 0 "" 2
 761              	@ 330 "C:\Users\thomas.camguilhem\Documents\Duet Firmwares\RepRapFirmware-1.21_lynxrev_1.7\CoreNG\a
 762 0008 72B6     		cpsid i
 763              	@ 0 "" 2
 764              	@ 456 "C:\Users\thomas.camguilhem\Documents\Duet Firmwares\RepRapFirmware-1.21_lynxrev_1.7\CoreNG\a
 765 000a BFF35F8F 		dmb
 766              	@ 0 "" 2
 767              		.thumb
 768              		.syntax unified
 769 000e 534A     		ldr	r2, .L101
 770 0010 0023     		movs	r3, #0
 771 0012 1370     		strb	r3, [r2]
 772 0014 C0F84034 		str	r3, [r0, #1088]
 773 0018 C0F83C34 		str	r3, [r0, #1084]
 774 001c 80F84434 		strb	r3, [r0, #1092]
 775 0020 A0F82C34 		strh	r3, [r0, #1068]	@ movhi
 776 0024 A0F82E34 		strh	r3, [r0, #1070]	@ movhi
 777 0028 A0F83034 		strh	r3, [r0, #1072]	@ movhi
 778 002c A0F83234 		strh	r3, [r0, #1074]	@ movhi
 779 0030 A0F83434 		strh	r3, [r0, #1076]	@ movhi
 780 0034 A0F83634 		strh	r3, [r0, #1078]	@ movhi
 781 0038 A0F83834 		strh	r3, [r0, #1080]	@ movhi
 782 003c A0F83A34 		strh	r3, [r0, #1082]	@ movhi
 783 0040 21B9     		cbnz	r1, .L90
 784 0042 0123     		movs	r3, #1
 785 0044 1370     		strb	r3, [r2]
 786              		.syntax unified
 787              	@ 456 "C:\Users\thomas.camguilhem\Documents\Duet Firmwares\RepRapFirmware-1.21_lynxrev_1.7\CoreNG\a
 788 0046 BFF35F8F 		dmb
 789              	@ 0 "" 2
 790              	@ 319 "C:\Users\thomas.camguilhem\Documents\Duet Firmwares\RepRapFirmware-1.21_lynxrev_1.7\CoreNG\a
 791 004a 62B6     		cpsie i
 792              	@ 0 "" 2
 793              		.thumb
 794              		.syntax unified
 795              	.L90:
 796              		.syntax unified
 797              	@ 470 "C:\Users\thomas.camguilhem\Documents\Duet Firmwares\RepRapFirmware-1.21_lynxrev_1.7\CoreNG\a
 798 004c EFF31081 		MRS r1, primask
ARM GAS  C:\Users\THOMAS~1.CAM\AppData\Local\Temp\cco4TuUn.s 			page 15


 799              	@ 0 "" 2
 800              	@ 330 "C:\Users\thomas.camguilhem\Documents\Duet Firmwares\RepRapFirmware-1.21_lynxrev_1.7\CoreNG\a
 801 0050 72B6     		cpsid i
 802              	@ 0 "" 2
 803              	@ 456 "C:\Users\thomas.camguilhem\Documents\Duet Firmwares\RepRapFirmware-1.21_lynxrev_1.7\CoreNG\a
 804 0052 BFF35F8F 		dmb
 805              	@ 0 "" 2
 806              		.thumb
 807              		.syntax unified
 808 0056 0023     		movs	r3, #0
 809 0058 1370     		strb	r3, [r2]
 810 005a C4F85C34 		str	r3, [r4, #1116]
 811 005e C4F85834 		str	r3, [r4, #1112]
 812 0062 84F86034 		strb	r3, [r4, #1120]
 813 0066 A4F84834 		strh	r3, [r4, #1096]	@ movhi
 814 006a A4F84A34 		strh	r3, [r4, #1098]	@ movhi
 815 006e A4F84C34 		strh	r3, [r4, #1100]	@ movhi
 816 0072 A4F84E34 		strh	r3, [r4, #1102]	@ movhi
 817 0076 A4F85034 		strh	r3, [r4, #1104]	@ movhi
 818 007a A4F85234 		strh	r3, [r4, #1106]	@ movhi
 819 007e A4F85434 		strh	r3, [r4, #1108]	@ movhi
 820 0082 A4F85634 		strh	r3, [r4, #1110]	@ movhi
 821 0086 21B9     		cbnz	r1, .L91
 822 0088 0123     		movs	r3, #1
 823 008a 1370     		strb	r3, [r2]
 824              		.syntax unified
 825              	@ 456 "C:\Users\thomas.camguilhem\Documents\Duet Firmwares\RepRapFirmware-1.21_lynxrev_1.7\CoreNG\a
 826 008c BFF35F8F 		dmb
 827              	@ 0 "" 2
 828              	@ 319 "C:\Users\thomas.camguilhem\Documents\Duet Firmwares\RepRapFirmware-1.21_lynxrev_1.7\CoreNG\a
 829 0090 62B6     		cpsie i
 830              	@ 0 "" 2
 831              		.thumb
 832              		.syntax unified
 833              	.L91:
 834 0092 94F8D430 		ldrb	r3, [r4, #212]	@ zero_extendqisi2
 835 0096 94F99509 		ldrsb	r0, [r4, #2453]
 836 009a 2222     		movs	r2, #34
 837 009c 013B     		subs	r3, r3, #1
 838 009e 84F8FD23 		strb	r2, [r4, #1021]
 839 00a2 062B     		cmp	r3, #6
 840 00a4 51D8     		bhi	.L92
 841 00a6 DFE803F0 		tbb	[pc, r3]
 842              	.L94:
 843 00aa 1B       		.byte	(.L93-.L94)/2
 844 00ab 1B       		.byte	(.L93-.L94)/2
 845 00ac 2C       		.byte	(.L95-.L94)/2
 846 00ad 34       		.byte	(.L96-.L94)/2
 847 00ae 50       		.byte	(.L92-.L94)/2
 848 00af 42       		.byte	(.L97-.L94)/2
 849 00b0 04       		.byte	(.L98-.L94)/2
 850 00b1 00       		.p2align 1
 851              	.L98:
 852 00b2 0021     		movs	r1, #0
 853 00b4 FFF7FEFF 		bl	_Z21AnalogInEnableChannel19AnalogChannelNumberb
 854 00b8 0022     		movs	r2, #0
 855 00ba 0121     		movs	r1, #1
ARM GAS  C:\Users\THOMAS~1.CAM\AppData\Local\Temp\cco4TuUn.s 			page 16


 856 00bc 94F8FC03 		ldrb	r0, [r4, #1020]	@ zero_extendqisi2
 857 00c0 FFF7FEFF 		bl	pinModeDuet
 858 00c4 0022     		movs	r2, #0
 859 00c6 94F83201 		ldrb	r0, [r4, #306]	@ zero_extendqisi2
 860 00ca 1146     		mov	r1, r2
 861              	.L100:
 862 00cc FFF7FEFF 		bl	pinModeDuet
 863 00d0 94F8FD03 		ldrb	r0, [r4, #1021]	@ zero_extendqisi2
 864 00d4 0022     		movs	r2, #0
 865 00d6 0321     		movs	r1, #3
 866 00d8 BDE81040 		pop	{r4, lr}
 867 00dc FFF7FEBF 		b	pinModeDuet
 868              	.L93:
 869 00e0 0121     		movs	r1, #1
 870 00e2 FFF7FEFF 		bl	_Z21AnalogInEnableChannel19AnalogChannelNumberb
 871 00e6 94F8FC03 		ldrb	r0, [r4, #1020]	@ zero_extendqisi2
 872 00ea 0022     		movs	r2, #0
 873 00ec 0521     		movs	r1, #5
 874 00ee FFF7FEFF 		bl	pinModeDuet
 875 00f2 94F8FD03 		ldrb	r0, [r4, #1021]	@ zero_extendqisi2
 876 00f6 0022     		movs	r2, #0
 877 00f8 0421     		movs	r1, #4
 878 00fa BDE81040 		pop	{r4, lr}
 879 00fe FFF7FEBF 		b	pinModeDuet
 880              	.L95:
 881 0102 0121     		movs	r1, #1
 882 0104 FFF7FEFF 		bl	_Z21AnalogInEnableChannel19AnalogChannelNumberb
 883 0108 0022     		movs	r2, #0
 884 010a 0521     		movs	r1, #5
 885 010c 94F8FC03 		ldrb	r0, [r4, #1020]	@ zero_extendqisi2
 886 0110 DCE7     		b	.L100
 887              	.L96:
 888 0112 0021     		movs	r1, #0
 889 0114 FFF7FEFF 		bl	_Z21AnalogInEnableChannel19AnalogChannelNumberb
 890 0118 0022     		movs	r2, #0
 891 011a 0121     		movs	r1, #1
 892 011c 94F8FC03 		ldrb	r0, [r4, #1020]	@ zero_extendqisi2
 893 0120 FFF7FEFF 		bl	pinModeDuet
 894 0124 0022     		movs	r2, #0
 895 0126 1146     		mov	r1, r2
 896 0128 94F83301 		ldrb	r0, [r4, #307]	@ zero_extendqisi2
 897 012c CEE7     		b	.L100
 898              	.L97:
 899 012e 0021     		movs	r1, #0
 900 0130 FFF7FEFF 		bl	_Z21AnalogInEnableChannel19AnalogChannelNumberb
 901 0134 0022     		movs	r2, #0
 902 0136 0121     		movs	r1, #1
 903 0138 94F8FC03 		ldrb	r0, [r4, #1020]	@ zero_extendqisi2
 904 013c FFF7FEFF 		bl	pinModeDuet
 905 0140 0022     		movs	r2, #0
 906 0142 1146     		mov	r1, r2
 907 0144 94F83401 		ldrb	r0, [r4, #308]	@ zero_extendqisi2
 908 0148 C0E7     		b	.L100
 909              	.L92:
 910 014a 0021     		movs	r1, #0
 911 014c FFF7FEFF 		bl	_Z21AnalogInEnableChannel19AnalogChannelNumberb
 912 0150 0022     		movs	r2, #0
ARM GAS  C:\Users\THOMAS~1.CAM\AppData\Local\Temp\cco4TuUn.s 			page 17


 913 0152 0121     		movs	r1, #1
 914 0154 94F8FC03 		ldrb	r0, [r4, #1020]	@ zero_extendqisi2
 915 0158 B8E7     		b	.L100
 916              	.L102:
 917 015a 00BF     		.align	2
 918              	.L101:
 919 015c 00000000 		.word	g_interrupt_enabled
 920              		.size	_ZN8Platform10InitZProbeEv, .-_ZN8Platform10InitZProbeEv
 921              		.section	.text._ZNK8Platform16GetZProbeReadingEv,"ax",%progbits
 922              		.align	1
 923              		.p2align 2,,3
 924              		.global	_ZNK8Platform16GetZProbeReadingEv
 925              		.syntax unified
 926              		.thumb
 927              		.thumb_func
 928              		.fpu fpv4-sp-d16
 929              		.type	_ZNK8Platform16GetZProbeReadingEv, %function
 930              	_ZNK8Platform16GetZProbeReadingEv:
 931              		@ args = 0, pretend = 0, frame = 0
 932              		@ frame_needed = 0, uses_anonymous_args = 0
 933 0000 10B5     		push	{r4, lr}
 934 0002 90F8D430 		ldrb	r3, [r0, #212]	@ zero_extendqisi2
 935 0006 082B     		cmp	r3, #8
 936 0008 0446     		mov	r4, r0
 937 000a 2FD0     		beq	.L104
 938 000c 90F84424 		ldrb	r2, [r0, #1092]	@ zero_extendqisi2
 939 0010 02F0FF00 		and	r0, r2, #255
 940 0014 9AB1     		cbz	r2, .L105
 941 0016 94F86024 		ldrb	r2, [r4, #1120]	@ zero_extendqisi2
 942 001a 02F0FF00 		and	r0, r2, #255
 943 001e 72B1     		cbz	r2, .L105
 944 0020 581E     		subs	r0, r3, #1
 945 0022 C2B2     		uxtb	r2, r0
 946 0024 082A     		cmp	r2, #8
 947 0026 88BF     		it	hi
 948 0028 0020     		movhi	r0, #0
 949 002a 52D9     		bls	.L134
 950              	.L103:
 951 002c 10BD     		pop	{r4, pc}
 952              	.L114:
 953 002e 94F83401 		ldrb	r0, [r4, #308]	@ zero_extendqisi2
 954 0032 FFF7FEFF 		bl	_ZN6IoPort7ReadPinEh
 955 0036 88BB     		cbnz	r0, .L118
 956              	.L119:
 957 0038 0020     		movs	r0, #0
 958              	.L117:
 959 003a 94F8D430 		ldrb	r3, [r4, #212]	@ zero_extendqisi2
 960              	.L105:
 961 003e 092B     		cmp	r3, #9
 962 0040 07D9     		bls	.L135
 963              	.L120:
 964 0042 4434     		adds	r4, r4, #68
 965              	.L123:
 966 0044 94F82D30 		ldrb	r3, [r4, #45]	@ zero_extendqisi2
 967 0048 002B     		cmp	r3, #0
 968 004a EFD0     		beq	.L103
 969 004c C0F57A70 		rsb	r0, r0, #1000
ARM GAS  C:\Users\THOMAS~1.CAM\AppData\Local\Temp\cco4TuUn.s 			page 18


 970 0050 10BD     		pop	{r4, pc}
 971              	.L135:
 972 0052 0122     		movs	r2, #1
 973 0054 02FA03F3 		lsl	r3, r2, r3
 974 0058 40F22632 		movw	r2, #806
 975 005c 1342     		tst	r3, r2
 976 005e 03D1     		bne	.L121
 977 0060 1B07     		lsls	r3, r3, #28
 978 0062 EED5     		bpl	.L120
 979 0064 A434     		adds	r4, r4, #164
 980 0066 EDE7     		b	.L123
 981              	.L121:
 982 0068 7434     		adds	r4, r4, #116
 983 006a EBE7     		b	.L123
 984              	.L104:
 985 006c 043B     		subs	r3, r3, #4
 986 006e 052B     		cmp	r3, #5
 987 0070 1ED8     		bhi	.L110
 988 0072 01A2     		adr	r2, .L112
 989 0074 52F823F0 		ldr	pc, [r2, r3, lsl #2]
 990              		.p2align 2
 991              	.L112:
 992 0078 A3000000 		.word	.L111+1
 993 007c 91000000 		.word	.L113+1
 994 0080 2F000000 		.word	.L114+1
 995 0084 C5000000 		.word	.L115+1
 996 0088 91000000 		.word	.L113+1
 997 008c 91000000 		.word	.L113+1
 998              		.p2align 1
 999              	.L113:
 1000 0090 94F8FC03 		ldrb	r0, [r4, #1020]	@ zero_extendqisi2
 1001 0094 FFF7FEFF 		bl	_ZN6IoPort7ReadPinEh
 1002 0098 0028     		cmp	r0, #0
 1003 009a CDD0     		beq	.L119
 1004              	.L118:
 1005 009c 4FF47A70 		mov	r0, #1000
 1006 00a0 CBE7     		b	.L117
 1007              	.L111:
 1008 00a2 94F83301 		ldrb	r0, [r4, #307]	@ zero_extendqisi2
 1009 00a6 FFF7FEFF 		bl	_ZN6IoPort7ReadPinEh
 1010 00aa 0028     		cmp	r0, #0
 1011 00ac C4D0     		beq	.L119
 1012 00ae F5E7     		b	.L118
 1013              	.L110:
 1014 00b0 94F99509 		ldrsb	r0, [r4, #2453]
 1015 00b4 FFF7FEFF 		bl	_Z19AnalogInReadChannel19AnalogChannelNumber
 1016 00b8 B0F57A6F 		cmp	r0, #4000
 1017 00bc EED2     		bcs	.L118
 1018 00be C0F38F00 		ubfx	r0, r0, #2, #16
 1019 00c2 BAE7     		b	.L117
 1020              	.L115:
 1021 00c4 94F83201 		ldrb	r0, [r4, #306]	@ zero_extendqisi2
 1022 00c8 FFF7FEFF 		bl	_ZN6IoPort7ReadPinEh
 1023 00cc 0028     		cmp	r0, #0
 1024 00ce B3D0     		beq	.L119
 1025 00d0 E4E7     		b	.L118
 1026              	.L134:
ARM GAS  C:\Users\THOMAS~1.CAM\AppData\Local\Temp\cco4TuUn.s 			page 19


 1027 00d2 0120     		movs	r0, #1
 1028 00d4 9040     		lsls	r0, r0, r2
 1029 00d6 40F27D12 		movw	r2, #381
 1030 00da 1042     		tst	r0, r2
 1031 00dc 09D0     		beq	.L136
 1032 00de D4F84024 		ldr	r2, [r4, #1088]
 1033 00e2 D4F85C04 		ldr	r0, [r4, #1116]
 1034 00e6 092B     		cmp	r3, #9
 1035 00e8 1044     		add	r0, r0, r2
 1036 00ea 4FEA9010 		lsr	r0, r0, #6
 1037 00ee A8D8     		bhi	.L120
 1038 00f0 AFE7     		b	.L135
 1039              	.L136:
 1040 00f2 0206     		lsls	r2, r0, #24
 1041 00f4 BAD4     		bmi	.L104
 1042 00f6 10F00200 		ands	r0, r0, #2
 1043 00fa 97D0     		beq	.L103
 1044 00fc D4F84004 		ldr	r0, [r4, #1088]
 1045 0100 D4F85C24 		ldr	r2, [r4, #1116]
 1046 0104 801A     		subs	r0, r0, r2
 1047 0106 48BF     		it	mi
 1048 0108 1F30     		addmi	r0, r0, #31
 1049 010a 4011     		asrs	r0, r0, #5
 1050 010c 97E7     		b	.L105
 1051              		.size	_ZNK8Platform16GetZProbeReadingEv, .-_ZNK8Platform16GetZProbeReadingEv
 1052 010e 00BF     		.section	.text._ZN8Platform24GetZProbeSecondaryValuesERiS0_,"ax",%progbits
 1053              		.align	1
 1054              		.p2align 2,,3
 1055              		.global	_ZN8Platform24GetZProbeSecondaryValuesERiS0_
 1056              		.syntax unified
 1057              		.thumb
 1058              		.thumb_func
 1059              		.fpu fpv4-sp-d16
 1060              		.type	_ZN8Platform24GetZProbeSecondaryValuesERiS0_, %function
 1061              	_ZN8Platform24GetZProbeSecondaryValuesERiS0_:
 1062              		@ args = 0, pretend = 0, frame = 0
 1063              		@ frame_needed = 0, uses_anonymous_args = 0
 1064              		@ link register save eliminated.
 1065 0000 90F84424 		ldrb	r2, [r0, #1092]	@ zero_extendqisi2
 1066 0004 62B1     		cbz	r2, .L143
 1067 0006 90F86024 		ldrb	r2, [r0, #1120]	@ zero_extendqisi2
 1068 000a 4AB1     		cbz	r2, .L143
 1069 000c 90F8D430 		ldrb	r3, [r0, #212]	@ zero_extendqisi2
 1070 0010 022B     		cmp	r3, #2
 1071 0012 05D1     		bne	.L143
 1072 0014 D0F84034 		ldr	r3, [r0, #1088]
 1073 0018 5B09     		lsrs	r3, r3, #5
 1074 001a 0B60     		str	r3, [r1]
 1075 001c 0120     		movs	r0, #1
 1076 001e 7047     		bx	lr
 1077              	.L143:
 1078 0020 0020     		movs	r0, #0
 1079 0022 7047     		bx	lr
 1080              		.size	_ZN8Platform24GetZProbeSecondaryValuesERiS0_, .-_ZN8Platform24GetZProbeSecondaryValuesERiS0_
 1081              		.section	.text._ZN8Platform20GetZProbeTemperatureEv,"ax",%progbits
 1082              		.align	1
 1083              		.p2align 2,,3
ARM GAS  C:\Users\THOMAS~1.CAM\AppData\Local\Temp\cco4TuUn.s 			page 20


 1084              		.global	_ZN8Platform20GetZProbeTemperatureEv
 1085              		.syntax unified
 1086              		.thumb
 1087              		.thumb_func
 1088              		.fpu fpv4-sp-d16
 1089              		.type	_ZN8Platform20GetZProbeTemperatureEv, %function
 1090              	_ZN8Platform20GetZProbeTemperatureEv:
 1091              		@ args = 0, pretend = 0, frame = 8
 1092              		@ frame_needed = 0, uses_anonymous_args = 0
 1093 0000 30B5     		push	{r4, r5, lr}
 1094 0002 0E4D     		ldr	r5, .L153
 1095 0004 83B0     		sub	sp, sp, #12
 1096 0006 0024     		movs	r4, #0
 1097              	.L148:
 1098 0008 6869     		ldr	r0, [r5, #20]
 1099 000a 0319     		adds	r3, r0, r4
 1100 000c 0DF10702 		add	r2, sp, #7
 1101 0010 93F9D630 		ldrsb	r3, [r3, #214]
 1102 0014 002B     		cmp	r3, #0
 1103 0016 1946     		mov	r1, r3
 1104 0018 04F10104 		add	r4, r4, #1
 1105 001c 05DA     		bge	.L152
 1106              	.L145:
 1107 001e 042C     		cmp	r4, #4
 1108 0020 F2D1     		bne	.L148
 1109 0022 B3EE090A 		vmov.f32	s0, #2.5e+1
 1110 0026 03B0     		add	sp, sp, #12
 1111              		@ sp needed
 1112 0028 30BD     		pop	{r4, r5, pc}
 1113              	.L152:
 1114 002a FFF7FEFF 		bl	_ZN4Heat14GetTemperatureEjR16TemperatureError
 1115 002e 9DF80730 		ldrb	r3, [sp, #7]	@ zero_extendqisi2
 1116 0032 002B     		cmp	r3, #0
 1117 0034 F3D1     		bne	.L145
 1118 0036 03B0     		add	sp, sp, #12
 1119              		@ sp needed
 1120 0038 30BD     		pop	{r4, r5, pc}
 1121              	.L154:
 1122 003a 00BF     		.align	2
 1123              	.L153:
 1124 003c 00000000 		.word	reprap
 1125              		.size	_ZN8Platform20GetZProbeTemperatureEv, .-_ZN8Platform20GetZProbeTemperatureEv
 1126              		.section	.text._ZN8Platform16ZProbeStopHeightEv,"ax",%progbits
 1127              		.align	1
 1128              		.p2align 2,,3
 1129              		.global	_ZN8Platform16ZProbeStopHeightEv
 1130              		.syntax unified
 1131              		.thumb
 1132              		.thumb_func
 1133              		.fpu fpv4-sp-d16
 1134              		.type	_ZN8Platform16ZProbeStopHeightEv, %function
 1135              	_ZN8Platform16ZProbeStopHeightEv:
 1136              		@ args = 0, pretend = 0, frame = 0
 1137              		@ frame_needed = 0, uses_anonymous_args = 0
 1138 0000 10B5     		push	{r4, lr}
 1139 0002 90F8D430 		ldrb	r3, [r0, #212]	@ zero_extendqisi2
 1140 0006 092B     		cmp	r3, #9
ARM GAS  C:\Users\THOMAS~1.CAM\AppData\Local\Temp\cco4TuUn.s 			page 21


 1141 0008 08D8     		bhi	.L156
 1142 000a 0122     		movs	r2, #1
 1143 000c 02FA03F3 		lsl	r3, r2, r3
 1144 0010 40F22632 		movw	r2, #806
 1145 0014 1342     		tst	r3, r2
 1146 0016 0AD1     		bne	.L157
 1147 0018 1B07     		lsls	r3, r3, #28
 1148 001a 11D4     		bmi	.L161
 1149              	.L156:
 1150 001c 00F14404 		add	r4, r0, #68
 1151 0020 FFF7FEFF 		bl	_ZN8Platform20GetZProbeTemperatureEv
 1152 0024 2046     		mov	r0, r4
 1153 0026 BDE81040 		pop	{r4, lr}
 1154 002a FFF7FEBF 		b	_ZNK6ZProbe13GetStopHeightEf
 1155              	.L157:
 1156 002e 00F17404 		add	r4, r0, #116
 1157 0032 FFF7FEFF 		bl	_ZN8Platform20GetZProbeTemperatureEv
 1158 0036 2046     		mov	r0, r4
 1159 0038 BDE81040 		pop	{r4, lr}
 1160 003c FFF7FEBF 		b	_ZNK6ZProbe13GetStopHeightEf
 1161              	.L161:
 1162 0040 00F1A404 		add	r4, r0, #164
 1163 0044 FFF7FEFF 		bl	_ZN8Platform20GetZProbeTemperatureEv
 1164 0048 2046     		mov	r0, r4
 1165 004a BDE81040 		pop	{r4, lr}
 1166 004e FFF7FEBF 		b	_ZNK6ZProbe13GetStopHeightEf
 1167              		.size	_ZN8Platform16ZProbeStopHeightEv, .-_ZN8Platform16ZProbeStopHeightEv
 1168 0052 00BF     		.section	.text._ZNK8Platform19GetZProbeDiveHeightEv,"ax",%progbits
 1169              		.align	1
 1170              		.p2align 2,,3
 1171              		.global	_ZNK8Platform19GetZProbeDiveHeightEv
 1172              		.syntax unified
 1173              		.thumb
 1174              		.thumb_func
 1175              		.fpu fpv4-sp-d16
 1176              		.type	_ZNK8Platform19GetZProbeDiveHeightEv, %function
 1177              	_ZNK8Platform19GetZProbeDiveHeightEv:
 1178              		@ args = 0, pretend = 0, frame = 0
 1179              		@ frame_needed = 0, uses_anonymous_args = 0
 1180              		@ link register save eliminated.
 1181 0000 90F8D430 		ldrb	r3, [r0, #212]	@ zero_extendqisi2
 1182 0004 092B     		cmp	r3, #9
 1183 0006 08D8     		bhi	.L163
 1184 0008 0122     		movs	r2, #1
 1185 000a 02FA03F3 		lsl	r3, r2, r3
 1186 000e 40F22632 		movw	r2, #806
 1187 0012 1342     		tst	r3, r2
 1188 0014 05D1     		bne	.L164
 1189 0016 1B07     		lsls	r3, r3, #28
 1190 0018 07D4     		bmi	.L167
 1191              	.L163:
 1192 001a 4430     		adds	r0, r0, #68
 1193 001c 90ED060A 		vldr.32	s0, [r0, #24]
 1194 0020 7047     		bx	lr
 1195              	.L164:
 1196 0022 7430     		adds	r0, r0, #116
 1197 0024 90ED060A 		vldr.32	s0, [r0, #24]
ARM GAS  C:\Users\THOMAS~1.CAM\AppData\Local\Temp\cco4TuUn.s 			page 22


 1198 0028 7047     		bx	lr
 1199              	.L167:
 1200 002a A430     		adds	r0, r0, #164
 1201 002c 90ED060A 		vldr.32	s0, [r0, #24]
 1202 0030 7047     		bx	lr
 1203              		.size	_ZNK8Platform19GetZProbeDiveHeightEv, .-_ZNK8Platform19GetZProbeDiveHeightEv
 1204 0032 00BF     		.section	.text._ZN8Platform23GetZProbeStartingHeightEv,"ax",%progbits
 1205              		.align	1
 1206              		.p2align 2,,3
 1207              		.global	_ZN8Platform23GetZProbeStartingHeightEv
 1208              		.syntax unified
 1209              		.thumb
 1210              		.thumb_func
 1211              		.fpu fpv4-sp-d16
 1212              		.type	_ZN8Platform23GetZProbeStartingHeightEv, %function
 1213              	_ZN8Platform23GetZProbeStartingHeightEv:
 1214              		@ args = 0, pretend = 0, frame = 0
 1215              		@ frame_needed = 0, uses_anonymous_args = 0
 1216 0000 10B5     		push	{r4, lr}
 1217 0002 2DED028B 		vpush.64	{d8}
 1218 0006 90F8D430 		ldrb	r3, [r0, #212]	@ zero_extendqisi2
 1219 000a 092B     		cmp	r3, #9
 1220 000c 08D8     		bhi	.L169
 1221 000e 0122     		movs	r2, #1
 1222 0010 02FA03F3 		lsl	r3, r2, r3
 1223 0014 40F22632 		movw	r2, #806
 1224 0018 1342     		tst	r3, r2
 1225 001a 1BD1     		bne	.L170
 1226 001c 1B07     		lsls	r3, r3, #28
 1227 001e 1CD4     		bmi	.L171
 1228              	.L169:
 1229 0020 00F14404 		add	r4, r0, #68
 1230              	.L172:
 1231 0024 94ED068A 		vldr.32	s16, [r4, #24]
 1232 0028 FFF7FEFF 		bl	_ZN8Platform20GetZProbeTemperatureEv
 1233 002c 2046     		mov	r0, r4
 1234 002e FFF7FEFF 		bl	_ZNK6ZProbe13GetStopHeightEf
 1235 0032 B4EE400A 		vcmp.f32	s0, s0
 1236 0036 F1EE10FA 		vmrs	APSR_nzcv, FPSCR
 1237 003a 06D6     		bvs	.L173
 1238 003c B5EEC00A 		vcmpe.f32	s0, #0
 1239 0040 F1EE10FA 		vmrs	APSR_nzcv, FPSCR
 1240 0044 D8BF     		it	le
 1241 0046 9FED060A 		vldrle.32	s0, .L175
 1242              	.L173:
 1243 004a 38EE000A 		vadd.f32	s0, s16, s0
 1244 004e BDEC028B 		vldm	sp!, {d8}
 1245 0052 10BD     		pop	{r4, pc}
 1246              	.L170:
 1247 0054 00F17404 		add	r4, r0, #116
 1248 0058 E4E7     		b	.L172
 1249              	.L171:
 1250 005a 00F1A404 		add	r4, r0, #164
 1251 005e E1E7     		b	.L172
 1252              	.L176:
 1253              		.align	2
 1254              	.L175:
ARM GAS  C:\Users\THOMAS~1.CAM\AppData\Local\Temp\cco4TuUn.s 			page 23


 1255 0060 00000000 		.word	0
 1256              		.size	_ZN8Platform23GetZProbeStartingHeightEv, .-_ZN8Platform23GetZProbeStartingHeightEv
 1257              		.section	.text._ZNK8Platform20GetZProbeTravelSpeedEv,"ax",%progbits
 1258              		.align	1
 1259              		.p2align 2,,3
 1260              		.global	_ZNK8Platform20GetZProbeTravelSpeedEv
 1261              		.syntax unified
 1262              		.thumb
 1263              		.thumb_func
 1264              		.fpu fpv4-sp-d16
 1265              		.type	_ZNK8Platform20GetZProbeTravelSpeedEv, %function
 1266              	_ZNK8Platform20GetZProbeTravelSpeedEv:
 1267              		@ args = 0, pretend = 0, frame = 0
 1268              		@ frame_needed = 0, uses_anonymous_args = 0
 1269              		@ link register save eliminated.
 1270 0000 90F8D430 		ldrb	r3, [r0, #212]	@ zero_extendqisi2
 1271 0004 092B     		cmp	r3, #9
 1272 0006 08D8     		bhi	.L178
 1273 0008 0122     		movs	r2, #1
 1274 000a 02FA03F3 		lsl	r3, r2, r3
 1275 000e 40F22632 		movw	r2, #806
 1276 0012 1342     		tst	r3, r2
 1277 0014 05D1     		bne	.L179
 1278 0016 1B07     		lsls	r3, r3, #28
 1279 0018 07D4     		bmi	.L182
 1280              	.L178:
 1281 001a 4430     		adds	r0, r0, #68
 1282 001c 90ED080A 		vldr.32	s0, [r0, #32]
 1283 0020 7047     		bx	lr
 1284              	.L179:
 1285 0022 7430     		adds	r0, r0, #116
 1286 0024 90ED080A 		vldr.32	s0, [r0, #32]
 1287 0028 7047     		bx	lr
 1288              	.L182:
 1289 002a A430     		adds	r0, r0, #164
 1290 002c 90ED080A 		vldr.32	s0, [r0, #32]
 1291 0030 7047     		bx	lr
 1292              		.size	_ZNK8Platform20GetZProbeTravelSpeedEv, .-_ZNK8Platform20GetZProbeTravelSpeedEv
 1293 0032 00BF     		.section	.text._ZN8Platform13SetZProbeTypeEj,"ax",%progbits
 1294              		.align	1
 1295              		.p2align 2,,3
 1296              		.global	_ZN8Platform13SetZProbeTypeEj
 1297              		.syntax unified
 1298              		.thumb
 1299              		.thumb_func
 1300              		.fpu fpv4-sp-d16
 1301              		.type	_ZN8Platform13SetZProbeTypeEj, %function
 1302              	_ZN8Platform13SetZProbeTypeEj:
 1303              		@ args = 0, pretend = 0, frame = 0
 1304              		@ frame_needed = 0, uses_anonymous_args = 0
 1305              		@ link register save eliminated.
 1306 0000 0929     		cmp	r1, #9
 1307 0002 88BF     		it	hi
 1308 0004 0021     		movhi	r1, #0
 1309 0006 80F8D410 		strb	r1, [r0, #212]
 1310 000a FFF7FEBF 		b	_ZN8Platform10InitZProbeEv
 1311              		.size	_ZN8Platform13SetZProbeTypeEj, .-_ZN8Platform13SetZProbeTypeEj
ARM GAS  C:\Users\THOMAS~1.CAM\AppData\Local\Temp\cco4TuUn.s 			page 24


 1312 000e 00BF     		.section	.text._ZN8Platform10SetProbingEb,"ax",%progbits
 1313              		.align	1
 1314              		.p2align 2,,3
 1315              		.global	_ZN8Platform10SetProbingEb
 1316              		.syntax unified
 1317              		.thumb
 1318              		.thumb_func
 1319              		.fpu fpv4-sp-d16
 1320              		.type	_ZN8Platform10SetProbingEb, %function
 1321              	_ZN8Platform10SetProbingEb:
 1322              		@ args = 0, pretend = 0, frame = 0
 1323              		@ frame_needed = 0, uses_anonymous_args = 0
 1324              		@ link register save eliminated.
 1325 0000 90F8D430 		ldrb	r3, [r0, #212]	@ zero_extendqisi2
 1326 0004 032B     		cmp	r3, #3
 1327 0006 00D8     		bhi	.L187
 1328 0008 7047     		bx	lr
 1329              	.L187:
 1330 000a 90F8FD03 		ldrb	r0, [r0, #1021]	@ zero_extendqisi2
 1331 000e FFF7FEBF 		b	digitalWrite
 1332              		.size	_ZN8Platform10SetProbingEb, .-_ZN8Platform10SetProbingEb
 1333 0012 00BF     		.section	.text._ZNK8Platform19GetZProbeParametersE10ZProbeType,"ax",%progbits
 1334              		.align	1
 1335              		.p2align 2,,3
 1336              		.global	_ZNK8Platform19GetZProbeParametersE10ZProbeType
 1337              		.syntax unified
 1338              		.thumb
 1339              		.thumb_func
 1340              		.fpu fpv4-sp-d16
 1341              		.type	_ZNK8Platform19GetZProbeParametersE10ZProbeType, %function
 1342              	_ZNK8Platform19GetZProbeParametersE10ZProbeType:
 1343              		@ args = 0, pretend = 0, frame = 0
 1344              		@ frame_needed = 0, uses_anonymous_args = 0
 1345              		@ link register save eliminated.
 1346 0000 0929     		cmp	r1, #9
 1347 0002 08D8     		bhi	.L189
 1348 0004 0123     		movs	r3, #1
 1349 0006 03FA01F1 		lsl	r1, r3, r1
 1350 000a 40F22633 		movw	r3, #806
 1351 000e 1942     		tst	r1, r3
 1352 0010 03D1     		bne	.L190
 1353 0012 0B07     		lsls	r3, r1, #28
 1354 0014 03D4     		bmi	.L193
 1355              	.L189:
 1356 0016 4430     		adds	r0, r0, #68
 1357 0018 7047     		bx	lr
 1358              	.L190:
 1359 001a 7430     		adds	r0, r0, #116
 1360 001c 7047     		bx	lr
 1361              	.L193:
 1362 001e A430     		adds	r0, r0, #164
 1363 0020 7047     		bx	lr
 1364              		.size	_ZNK8Platform19GetZProbeParametersE10ZProbeType, .-_ZNK8Platform19GetZProbeParametersE10ZPro
 1365 0022 00BF     		.section	.text._ZN8Platform19SetZProbeParametersE10ZProbeTypeRK6ZProbe,"ax",%progbits
 1366              		.align	1
 1367              		.p2align 2,,3
 1368              		.global	_ZN8Platform19SetZProbeParametersE10ZProbeTypeRK6ZProbe
ARM GAS  C:\Users\THOMAS~1.CAM\AppData\Local\Temp\cco4TuUn.s 			page 25


 1369              		.syntax unified
 1370              		.thumb
 1371              		.thumb_func
 1372              		.fpu fpv4-sp-d16
 1373              		.type	_ZN8Platform19SetZProbeParametersE10ZProbeTypeRK6ZProbe, %function
 1374              	_ZN8Platform19SetZProbeParametersE10ZProbeTypeRK6ZProbe:
 1375              		@ args = 0, pretend = 0, frame = 0
 1376              		@ frame_needed = 0, uses_anonymous_args = 0
 1377              		@ link register save eliminated.
 1378 0000 0929     		cmp	r1, #9
 1379 0002 30B4     		push	{r4, r5}
 1380 0004 0446     		mov	r4, r0
 1381 0006 08D8     		bhi	.L195
 1382 0008 0123     		movs	r3, #1
 1383 000a 03FA01F1 		lsl	r1, r3, r1
 1384 000e 40F22633 		movw	r3, #806
 1385 0012 1942     		tst	r1, r3
 1386 0014 0DD1     		bne	.L196
 1387 0016 0B07     		lsls	r3, r1, #28
 1388 0018 0FD4     		bmi	.L201
 1389              	.L195:
 1390 001a 1546     		mov	r5, r2
 1391 001c 0FCD     		ldmia	r5!, {r0, r1, r2, r3}
 1392 001e 4434     		adds	r4, r4, #68
 1393              	.L200:
 1394 0020 0FC4     		stmia	r4!, {r0, r1, r2, r3}
 1395 0022 0FCD     		ldmia	r5!, {r0, r1, r2, r3}
 1396 0024 0FC4     		stmia	r4!, {r0, r1, r2, r3}
 1397 0026 95E80F00 		ldm	r5, {r0, r1, r2, r3}
 1398 002a 84E80F00 		stm	r4, {r0, r1, r2, r3}
 1399 002e 30BC     		pop	{r4, r5}
 1400 0030 7047     		bx	lr
 1401              	.L196:
 1402 0032 1546     		mov	r5, r2
 1403 0034 0FCD     		ldmia	r5!, {r0, r1, r2, r3}
 1404 0036 7434     		adds	r4, r4, #116
 1405 0038 F2E7     		b	.L200
 1406              	.L201:
 1407 003a 1546     		mov	r5, r2
 1408 003c 0FCD     		ldmia	r5!, {r0, r1, r2, r3}
 1409 003e A434     		adds	r4, r4, #164
 1410 0040 EEE7     		b	.L200
 1411              		.size	_ZN8Platform19SetZProbeParametersE10ZProbeTypeRK6ZProbe, .-_ZN8Platform19SetZProbeParameters
 1412 0042 00BF     		.section	.text._ZN8Platform13ProgramZProbeER11GCodeBufferRK9StringRef,"ax",%progbits
 1413              		.align	1
 1414              		.p2align 2,,3
 1415              		.global	_ZN8Platform13ProgramZProbeER11GCodeBufferRK9StringRef
 1416              		.syntax unified
 1417              		.thumb
 1418              		.thumb_func
 1419              		.fpu fpv4-sp-d16
 1420              		.type	_ZN8Platform13ProgramZProbeER11GCodeBufferRK9StringRef, %function
 1421              	_ZN8Platform13ProgramZProbeER11GCodeBufferRK9StringRef:
 1422              		@ args = 0, pretend = 0, frame = 40
 1423              		@ frame_needed = 0, uses_anonymous_args = 0
 1424 0000 2DE9F041 		push	{r4, r5, r6, r7, r8, lr}
 1425 0004 0E46     		mov	r6, r1
ARM GAS  C:\Users\THOMAS~1.CAM\AppData\Local\Temp\cco4TuUn.s 			page 26


 1426 0006 8AB0     		sub	sp, sp, #40
 1427 0008 8046     		mov	r8, r0
 1428 000a 5321     		movs	r1, #83
 1429 000c 3046     		mov	r0, r6
 1430 000e 1746     		mov	r7, r2
 1431 0010 FFF7FEFF 		bl	_ZN11GCodeBuffer4SeenEc
 1432 0014 18B3     		cbz	r0, .L203
 1433 0016 0AAA     		add	r2, sp, #40
 1434 0018 0823     		movs	r3, #8
 1435 001a 0DEB0305 		add	r5, sp, r3
 1436 001e 42F8243D 		str	r3, [r2, #-36]!
 1437 0022 0446     		mov	r4, r0
 1438 0024 2946     		mov	r1, r5
 1439 0026 3046     		mov	r0, r6
 1440 0028 0023     		movs	r3, #0
 1441 002a FFF7FEFF 		bl	_ZN11GCodeBuffer16GetUnsignedArrayEPmRjb
 1442 002e 019A     		ldr	r2, [sp, #4]
 1443 0030 AAB1     		cbz	r2, .L203
 1444 0032 029B     		ldr	r3, [sp, #8]
 1445 0034 FF2B     		cmp	r3, #255
 1446 0036 1BD8     		bhi	.L205
 1447 0038 0023     		movs	r3, #0
 1448 003a 03E0     		b	.L206
 1449              	.L208:
 1450 003c 55F82310 		ldr	r1, [r5, r3, lsl #2]
 1451 0040 FF29     		cmp	r1, #255
 1452 0042 15D8     		bhi	.L205
 1453              	.L206:
 1454 0044 0133     		adds	r3, r3, #1
 1455 0046 9A42     		cmp	r2, r3
 1456 0048 F8D1     		bne	.L208
 1457 004a 08F58060 		add	r0, r8, #1024
 1458 004e 2946     		mov	r1, r5
 1459 0050 FFF7FEFF 		bl	_ZN16ZProbeProgrammer11SendProgramEPKmj
 1460 0054 0024     		movs	r4, #0
 1461 0056 2046     		mov	r0, r4
 1462 0058 0AB0     		add	sp, sp, #40
 1463              		@ sp needed
 1464 005a BDE8F081 		pop	{r4, r5, r6, r7, r8, pc}
 1465              	.L203:
 1466 005e 3846     		mov	r0, r7
 1467 0060 0749     		ldr	r1, .L218
 1468 0062 FFF7FEFF 		bl	_ZNK9StringRef4copyEPKc
 1469 0066 0124     		movs	r4, #1
 1470 0068 2046     		mov	r0, r4
 1471 006a 0AB0     		add	sp, sp, #40
 1472              		@ sp needed
 1473 006c BDE8F081 		pop	{r4, r5, r6, r7, r8, pc}
 1474              	.L205:
 1475 0070 3846     		mov	r0, r7
 1476 0072 0449     		ldr	r1, .L218+4
 1477 0074 FFF7FEFF 		bl	_ZNK9StringRef4copyEPKc
 1478 0078 2046     		mov	r0, r4
 1479 007a 0AB0     		add	sp, sp, #40
 1480              		@ sp needed
 1481 007c BDE8F081 		pop	{r4, r5, r6, r7, r8, pc}
 1482              	.L219:
ARM GAS  C:\Users\THOMAS~1.CAM\AppData\Local\Temp\cco4TuUn.s 			page 27


 1483              		.align	2
 1484              	.L218:
 1485 0080 24000000 		.word	.LC12
 1486 0084 00000000 		.word	.LC11
 1487              		.size	_ZN8Platform13ProgramZProbeER11GCodeBufferRK9StringRef, .-_ZN8Platform13ProgramZProbeER11GCo
 1488              		.section	.text._ZNK8Platform17SetZProbeModStateEb,"ax",%progbits
 1489              		.align	1
 1490              		.p2align 2,,3
 1491              		.global	_ZNK8Platform17SetZProbeModStateEb
 1492              		.syntax unified
 1493              		.thumb
 1494              		.thumb_func
 1495              		.fpu fpv4-sp-d16
 1496              		.type	_ZNK8Platform17SetZProbeModStateEb, %function
 1497              	_ZNK8Platform17SetZProbeModStateEb:
 1498              		@ args = 0, pretend = 0, frame = 0
 1499              		@ frame_needed = 0, uses_anonymous_args = 0
 1500              		@ link register save eliminated.
 1501 0000 90F8FD03 		ldrb	r0, [r0, #1021]	@ zero_extendqisi2
 1502 0004 FFF7FEBF 		b	_ZN6IoPort12WriteDigitalEhb
 1503              		.size	_ZNK8Platform17SetZProbeModStateEb, .-_ZNK8Platform17SetZProbeModStateEb
 1504              		.section	.text._ZNK8Platform16HomingZWithProbeEv,"ax",%progbits
 1505              		.align	1
 1506              		.p2align 2,,3
 1507              		.global	_ZNK8Platform16HomingZWithProbeEv
 1508              		.syntax unified
 1509              		.thumb
 1510              		.thumb_func
 1511              		.fpu fpv4-sp-d16
 1512              		.type	_ZNK8Platform16HomingZWithProbeEv, %function
 1513              	_ZNK8Platform16HomingZWithProbeEv:
 1514              		@ args = 0, pretend = 0, frame = 0
 1515              		@ frame_needed = 0, uses_anonymous_args = 0
 1516              		@ link register save eliminated.
 1517 0000 90F8D430 		ldrb	r3, [r0, #212]	@ zero_extendqisi2
 1518 0004 4BB1     		cbz	r3, .L223
 1519 0006 D0F89837 		ldr	r3, [r0, #1944]
 1520 000a 022B     		cmp	r3, #2
 1521 000c 07D0     		beq	.L224
 1522 000e D0F87407 		ldr	r0, [r0, #1908]
 1523 0012 B0FA80F0 		clz	r0, r0
 1524 0016 4009     		lsrs	r0, r0, #5
 1525 0018 7047     		bx	lr
 1526              	.L223:
 1527 001a 1846     		mov	r0, r3
 1528 001c 7047     		bx	lr
 1529              	.L224:
 1530 001e 0120     		movs	r0, #1
 1531 0020 7047     		bx	lr
 1532              		.size	_ZNK8Platform16HomingZWithProbeEv, .-_ZNK8Platform16HomingZWithProbeEv
 1533 0022 00BF     		.section	.text._ZN8Platform32CheckFirmwareUpdatePrerequisitesERK9StringRef,"ax",%progbits
 1534              		.align	1
 1535              		.p2align 2,,3
 1536              		.global	_ZN8Platform32CheckFirmwareUpdatePrerequisitesERK9StringRef
 1537              		.syntax unified
 1538              		.thumb
 1539              		.thumb_func
ARM GAS  C:\Users\THOMAS~1.CAM\AppData\Local\Temp\cco4TuUn.s 			page 28


 1540              		.fpu fpv4-sp-d16
 1541              		.type	_ZN8Platform32CheckFirmwareUpdatePrerequisitesERK9StringRef, %function
 1542              	_ZN8Platform32CheckFirmwareUpdatePrerequisitesERK9StringRef:
 1543              		@ args = 0, pretend = 0, frame = 8
 1544              		@ frame_needed = 0, uses_anonymous_args = 0
 1545 0000 F0B5     		push	{r4, r5, r6, r7, lr}
 1546 0002 1D4A     		ldr	r2, .L232
 1547 0004 83B0     		sub	sp, sp, #12
 1548 0006 0546     		mov	r5, r0
 1549 0008 0E46     		mov	r6, r1
 1550 000a D0F88809 		ldr	r0, [r0, #2440]
 1551 000e 1B49     		ldr	r1, .L232+4
 1552 0010 0023     		movs	r3, #0
 1553 0012 FFF7FEFF 		bl	_ZN11MassStorage8OpenFileEPKcS1_8OpenMode
 1554 0016 0446     		mov	r4, r0
 1555 0018 B8B1     		cbz	r0, .L231
 1556 001a 0422     		movs	r2, #4
 1557 001c 0DEB0201 		add	r1, sp, r2
 1558 0020 FFF7FEFF 		bl	_ZN9FileStore4ReadEPcj
 1559 0024 0746     		mov	r7, r0
 1560 0026 2046     		mov	r0, r4
 1561 0028 FFF7FEFF 		bl	_ZN9FileStore5CloseEv
 1562 002c 042F     		cmp	r7, #4
 1563 002e 03D1     		bne	.L228
 1564 0030 134B     		ldr	r3, .L232+8
 1565 0032 019A     		ldr	r2, [sp, #4]
 1566 0034 9A42     		cmp	r2, r3
 1567 0036 10D0     		beq	.L229
 1568              	.L228:
 1569 0038 3046     		mov	r0, r6
 1570 003a 0F4A     		ldr	r2, .L232
 1571 003c 1149     		ldr	r1, .L232+12
 1572 003e FFF7FEFF 		bl	_ZNK9StringRef6printfEPKcz
 1573 0042 0024     		movs	r4, #0
 1574              	.L227:
 1575 0044 2046     		mov	r0, r4
 1576 0046 03B0     		add	sp, sp, #12
 1577              		@ sp needed
 1578 0048 F0BD     		pop	{r4, r5, r6, r7, pc}
 1579              	.L231:
 1580 004a 3046     		mov	r0, r6
 1581 004c 0A4A     		ldr	r2, .L232
 1582 004e 0E49     		ldr	r1, .L232+16
 1583 0050 FFF7FEFF 		bl	_ZNK9StringRef6printfEPKcz
 1584 0054 2046     		mov	r0, r4
 1585 0056 03B0     		add	sp, sp, #12
 1586              		@ sp needed
 1587 0058 F0BD     		pop	{r4, r5, r6, r7, pc}
 1588              	.L229:
 1589 005a D5F88809 		ldr	r0, [r5, #2440]
 1590 005e 0B4A     		ldr	r2, .L232+20
 1591 0060 0649     		ldr	r1, .L232+4
 1592 0062 FFF7FEFF 		bl	_ZNK11MassStorage10FileExistsEPKcS1_
 1593 0066 0446     		mov	r4, r0
 1594 0068 0028     		cmp	r0, #0
 1595 006a EBD1     		bne	.L227
 1596 006c 3046     		mov	r0, r6
ARM GAS  C:\Users\THOMAS~1.CAM\AppData\Local\Temp\cco4TuUn.s 			page 29


 1597 006e 074A     		ldr	r2, .L232+20
 1598 0070 0749     		ldr	r1, .L232+24
 1599 0072 FFF7FEFF 		bl	_ZNK9StringRef6printfEPKcz
 1600 0076 E5E7     		b	.L227
 1601              	.L233:
 1602              		.align	2
 1603              	.L232:
 1604 0078 00000000 		.word	.LC13
 1605 007c 1C000000 		.word	.LC14
 1606 0080 00000220 		.word	537001984
 1607 0084 44000000 		.word	.LC16
 1608 0088 24000000 		.word	.LC15
 1609 008c 7C000000 		.word	.LC17
 1610 0090 88000000 		.word	.LC18
 1611              		.size	_ZN8Platform32CheckFirmwareUpdatePrerequisitesERK9StringRef, .-_ZN8Platform32CheckFirmwareUp
 1612              		.section	.text._ZNK8Platform9EmulatingEv,"ax",%progbits
 1613              		.align	1
 1614              		.p2align 2,,3
 1615              		.global	_ZNK8Platform9EmulatingEv
 1616              		.syntax unified
 1617              		.thumb
 1618              		.thumb_func
 1619              		.fpu fpv4-sp-d16
 1620              		.type	_ZNK8Platform9EmulatingEv, %function
 1621              	_ZNK8Platform9EmulatingEv:
 1622              		@ args = 0, pretend = 0, frame = 0
 1623              		@ frame_needed = 0, uses_anonymous_args = 0
 1624              		@ link register save eliminated.
 1625 0000 90F80501 		ldrb	r0, [r0, #261]	@ zero_extendqisi2
 1626 0004 0128     		cmp	r0, #1
 1627 0006 08BF     		it	eq
 1628 0008 0020     		moveq	r0, #0
 1629 000a 7047     		bx	lr
 1630              		.size	_ZNK8Platform9EmulatingEv, .-_ZNK8Platform9EmulatingEv
 1631              		.section	.text._ZN8Platform20UpdateNetworkAddressEPhPKh,"ax",%progbits
 1632              		.align	1
 1633              		.p2align 2,,3
 1634              		.global	_ZN8Platform20UpdateNetworkAddressEPhPKh
 1635              		.syntax unified
 1636              		.thumb
 1637              		.thumb_func
 1638              		.fpu fpv4-sp-d16
 1639              		.type	_ZN8Platform20UpdateNetworkAddressEPhPKh, %function
 1640              	_ZN8Platform20UpdateNetworkAddressEPhPKh:
 1641              		@ args = 0, pretend = 0, frame = 0
 1642              		@ frame_needed = 0, uses_anonymous_args = 0
 1643              		@ link register save eliminated.
 1644 0000 10B4     		push	{r4}
 1645 0002 531E     		subs	r3, r2, #1
 1646 0004 0446     		mov	r4, r0
 1647 0006 0139     		subs	r1, r1, #1
 1648 0008 0332     		adds	r2, r2, #3
 1649              	.L238:
 1650 000a 13F8010F 		ldrb	r0, [r3, #1]!	@ zero_extendqisi2
 1651 000e 01F8010F 		strb	r0, [r1, #1]!
 1652 0012 9342     		cmp	r3, r2
 1653 0014 F9D1     		bne	.L238
ARM GAS  C:\Users\THOMAS~1.CAM\AppData\Local\Temp\cco4TuUn.s 			page 30


 1654 0016 064A     		ldr	r2, .L241
 1655 0018 04F1D903 		add	r3, r4, #217
 1656 001c D068     		ldr	r0, [r2, #12]
 1657 001e 04F1D501 		add	r1, r4, #213
 1658 0022 04F1DD02 		add	r2, r4, #221
 1659 0026 5DF8044B 		ldr	r4, [sp], #4
 1660 002a FFF7FEBF 		b	_ZN7Network20SetEthernetIPAddressEPKhS1_S1_
 1661              	.L242:
 1662 002e 00BF     		.align	2
 1663              	.L241:
 1664 0030 00000000 		.word	reprap
 1665              		.size	_ZN8Platform20UpdateNetworkAddressEPhPKh, .-_ZN8Platform20UpdateNetworkAddressEPhPKh
 1666              		.section	.text._ZN8Platform12SetIPAddressEPh,"ax",%progbits
 1667              		.align	1
 1668              		.p2align 2,,3
 1669              		.global	_ZN8Platform12SetIPAddressEPh
 1670              		.syntax unified
 1671              		.thumb
 1672              		.thumb_func
 1673              		.fpu fpv4-sp-d16
 1674              		.type	_ZN8Platform12SetIPAddressEPh, %function
 1675              	_ZN8Platform12SetIPAddressEPh:
 1676              		@ args = 0, pretend = 0, frame = 0
 1677              		@ frame_needed = 0, uses_anonymous_args = 0
 1678              		@ link register save eliminated.
 1679 0000 0A46     		mov	r2, r1
 1680 0002 00F1D501 		add	r1, r0, #213
 1681 0006 FFF7FEBF 		b	_ZN8Platform20UpdateNetworkAddressEPhPKh
 1682              		.size	_ZN8Platform12SetIPAddressEPh, .-_ZN8Platform12SetIPAddressEPh
 1683 000a 00BF     		.section	.text._ZN8Platform10SetGateWayEPh,"ax",%progbits
 1684              		.align	1
 1685              		.p2align 2,,3
 1686              		.global	_ZN8Platform10SetGateWayEPh
 1687              		.syntax unified
 1688              		.thumb
 1689              		.thumb_func
 1690              		.fpu fpv4-sp-d16
 1691              		.type	_ZN8Platform10SetGateWayEPh, %function
 1692              	_ZN8Platform10SetGateWayEPh:
 1693              		@ args = 0, pretend = 0, frame = 0
 1694              		@ frame_needed = 0, uses_anonymous_args = 0
 1695              		@ link register save eliminated.
 1696 0000 0A46     		mov	r2, r1
 1697 0002 00F1DD01 		add	r1, r0, #221
 1698 0006 FFF7FEBF 		b	_ZN8Platform20UpdateNetworkAddressEPhPKh
 1699              		.size	_ZN8Platform10SetGateWayEPh, .-_ZN8Platform10SetGateWayEPh
 1700 000a 00BF     		.section	.text._ZN8Platform10SetNetMaskEPh,"ax",%progbits
 1701              		.align	1
 1702              		.p2align 2,,3
 1703              		.global	_ZN8Platform10SetNetMaskEPh
 1704              		.syntax unified
 1705              		.thumb
 1706              		.thumb_func
 1707              		.fpu fpv4-sp-d16
 1708              		.type	_ZN8Platform10SetNetMaskEPh, %function
 1709              	_ZN8Platform10SetNetMaskEPh:
 1710              		@ args = 0, pretend = 0, frame = 0
ARM GAS  C:\Users\THOMAS~1.CAM\AppData\Local\Temp\cco4TuUn.s 			page 31


 1711              		@ frame_needed = 0, uses_anonymous_args = 0
 1712              		@ link register save eliminated.
 1713 0000 0A46     		mov	r2, r1
 1714 0002 00F1D901 		add	r1, r0, #217
 1715 0006 FFF7FEBF 		b	_ZN8Platform20UpdateNetworkAddressEPhPKh
 1716              		.size	_ZN8Platform10SetNetMaskEPh, .-_ZN8Platform10SetNetMaskEPh
 1717 000a 00BF     		.section	.text._ZNK8Platform19AnyAxisMotorStalledEj,"ax",%progbits
 1718              		.align	1
 1719              		.p2align 2,,3
 1720              		.global	_ZNK8Platform19AnyAxisMotorStalledEj
 1721              		.syntax unified
 1722              		.thumb
 1723              		.thumb_func
 1724              		.fpu fpv4-sp-d16
 1725              		.type	_ZNK8Platform19AnyAxisMotorStalledEj, %function
 1726              	_ZNK8Platform19AnyAxisMotorStalledEj:
 1727              		@ args = 0, pretend = 0, frame = 0
 1728              		@ frame_needed = 0, uses_anonymous_args = 0
 1729 0000 70B5     		push	{r4, r5, r6, lr}
 1730 0002 144B     		ldr	r3, .L255
 1731 0004 9B69     		ldr	r3, [r3, #24]
 1732 0006 D3F89452 		ldr	r5, [r3, #660]
 1733 000a 8D42     		cmp	r5, r1
 1734 000c 19D9     		bls	.L247
 1735 000e 00EBC106 		add	r6, r0, r1, lsl #3
 1736 0012 D6F8F432 		ldr	r3, [r6, #756]
 1737 0016 93B1     		cbz	r3, .L250
 1738 0018 5F31     		adds	r1, r1, #95
 1739 001a 00EBC105 		add	r5, r0, r1, lsl #3
 1740 001e 0024     		movs	r4, #0
 1741 0020 03E0     		b	.L251
 1742              	.L254:
 1743 0022 D6F8F432 		ldr	r3, [r6, #756]
 1744 0026 A342     		cmp	r3, r4
 1745 0028 09D9     		bls	.L250
 1746              	.L251:
 1747 002a 15F8010B 		ldrb	r0, [r5], #1	@ zero_extendqisi2
 1748 002e FFF7FEFF 		bl	_ZN12SmartDrivers13GetLiveStatusEj
 1749 0032 C307     		lsls	r3, r0, #31
 1750 0034 04F10104 		add	r4, r4, #1
 1751 0038 F3D5     		bpl	.L254
 1752 003a 0120     		movs	r0, #1
 1753 003c 70BD     		pop	{r4, r5, r6, pc}
 1754              	.L250:
 1755 003e 0020     		movs	r0, #0
 1756 0040 70BD     		pop	{r4, r5, r6, pc}
 1757              	.L247:
 1758 0042 491B     		subs	r1, r1, r5
 1759 0044 0844     		add	r0, r0, r1
 1760 0046 90F83C03 		ldrb	r0, [r0, #828]	@ zero_extendqisi2
 1761 004a FFF7FEFF 		bl	_ZN12SmartDrivers13GetLiveStatusEj
 1762 004e 00F00100 		and	r0, r0, #1
 1763 0052 70BD     		pop	{r4, r5, r6, pc}
 1764              	.L256:
 1765              		.align	2
 1766              	.L255:
 1767 0054 00000000 		.word	reprap
ARM GAS  C:\Users\THOMAS~1.CAM\AppData\Local\Temp\cco4TuUn.s 			page 32


 1768              		.size	_ZNK8Platform19AnyAxisMotorStalledEj, .-_ZNK8Platform19AnyAxisMotorStalledEj
 1769              		.section	.text._ZNK8Platform20ExtruderMotorStalledEj,"ax",%progbits
 1770              		.align	1
 1771              		.p2align 2,,3
 1772              		.global	_ZNK8Platform20ExtruderMotorStalledEj
 1773              		.syntax unified
 1774              		.thumb
 1775              		.thumb_func
 1776              		.fpu fpv4-sp-d16
 1777              		.type	_ZNK8Platform20ExtruderMotorStalledEj, %function
 1778              	_ZNK8Platform20ExtruderMotorStalledEj:
 1779              		@ args = 0, pretend = 0, frame = 0
 1780              		@ frame_needed = 0, uses_anonymous_args = 0
 1781 0000 08B5     		push	{r3, lr}
 1782 0002 0144     		add	r1, r1, r0
 1783 0004 91F83C03 		ldrb	r0, [r1, #828]	@ zero_extendqisi2
 1784 0008 FFF7FEFF 		bl	_ZN12SmartDrivers13GetLiveStatusEj
 1785 000c 00F00100 		and	r0, r0, #1
 1786 0010 08BD     		pop	{r3, pc}
 1787              		.size	_ZNK8Platform20ExtruderMotorStalledEj, .-_ZNK8Platform20ExtruderMotorStalledEj
 1788 0012 00BF     		.section	.text._ZN8Platform15DisableAutoSaveEv,"ax",%progbits
 1789              		.align	1
 1790              		.p2align 2,,3
 1791              		.global	_ZN8Platform15DisableAutoSaveEv
 1792              		.syntax unified
 1793              		.thumb
 1794              		.thumb_func
 1795              		.fpu fpv4-sp-d16
 1796              		.type	_ZN8Platform15DisableAutoSaveEv, %function
 1797              	_ZN8Platform15DisableAutoSaveEv:
 1798              		@ args = 0, pretend = 0, frame = 0
 1799              		@ frame_needed = 0, uses_anonymous_args = 0
 1800              		@ link register save eliminated.
 1801 0000 0023     		movs	r3, #0
 1802 0002 80F8C439 		strb	r3, [r0, #2500]
 1803 0006 7047     		bx	lr
 1804              		.size	_ZN8Platform15DisableAutoSaveEv, .-_ZN8Platform15DisableAutoSaveEv
 1805              		.section	.text._ZNK8Platform9IsPowerOkEv,"ax",%progbits
 1806              		.align	1
 1807              		.p2align 2,,3
 1808              		.global	_ZNK8Platform9IsPowerOkEv
 1809              		.syntax unified
 1810              		.thumb
 1811              		.thumb_func
 1812              		.fpu fpv4-sp-d16
 1813              		.type	_ZNK8Platform9IsPowerOkEv, %function
 1814              	_ZNK8Platform9IsPowerOkEv:
 1815              		@ args = 0, pretend = 0, frame = 0
 1816              		@ frame_needed = 0, uses_anonymous_args = 0
 1817              		@ link register save eliminated.
 1818 0000 90F8C439 		ldrb	r3, [r0, #2500]	@ zero_extendqisi2
 1819 0004 43B1     		cbz	r3, .L262
 1820 0006 B0F8AA39 		ldrh	r3, [r0, #2474]
 1821 000a B0F8B009 		ldrh	r0, [r0, #2480]
 1822 000e 9842     		cmp	r0, r3
 1823 0010 2CBF     		ite	cs
 1824 0012 0020     		movcs	r0, #0
ARM GAS  C:\Users\THOMAS~1.CAM\AppData\Local\Temp\cco4TuUn.s 			page 33


 1825 0014 0120     		movcc	r0, #1
 1826 0016 7047     		bx	lr
 1827              	.L262:
 1828 0018 0120     		movs	r0, #1
 1829 001a 7047     		bx	lr
 1830              		.size	_ZNK8Platform9IsPowerOkEv, .-_ZNK8Platform9IsPowerOkEv
 1831              		.section	.text._ZN8Platform14EnableAutoSaveEff,"ax",%progbits
 1832              		.align	1
 1833              		.p2align 2,,3
 1834              		.global	_ZN8Platform14EnableAutoSaveEff
 1835              		.syntax unified
 1836              		.thumb
 1837              		.thumb_func
 1838              		.fpu fpv4-sp-d16
 1839              		.type	_ZN8Platform14EnableAutoSaveEff, %function
 1840              	_ZN8Platform14EnableAutoSaveEff:
 1841              		@ args = 0, pretend = 0, frame = 0
 1842              		@ frame_needed = 0, uses_anonymous_args = 0
 1843              		@ link register save eliminated.
 1844 0000 DFED0A7A 		vldr.32	s15, .L264
 1845 0004 20EE270A 		vmul.f32	s0, s0, s15
 1846 0008 60EEA70A 		vmul.f32	s1, s1, s15
 1847 000c BCEEC00A 		vcvt.u32.f32	s0, s0
 1848 0010 FCEEE00A 		vcvt.u32.f32	s1, s1
 1849 0014 10EE102A 		vmov	r2, s0	@ int
 1850 0018 A0F8B029 		strh	r2, [r0, #2480]	@ movhi
 1851 001c 10EE902A 		vmov	r2, s1	@ int
 1852 0020 0123     		movs	r3, #1
 1853 0022 A0F8B229 		strh	r2, [r0, #2482]	@ movhi
 1854 0026 80F8C439 		strb	r3, [r0, #2500]
 1855 002a 7047     		bx	lr
 1856              	.L265:
 1857              		.align	2
 1858              	.L264:
 1859 002c C9ACE142 		.word	1122086089
 1860              		.size	_ZN8Platform14EnableAutoSaveEff, .-_ZN8Platform14EnableAutoSaveEff
 1861              		.section	.text._ZN8Platform19GetAutoSaveSettingsERfS0_,"ax",%progbits
 1862              		.align	1
 1863              		.p2align 2,,3
 1864              		.global	_ZN8Platform19GetAutoSaveSettingsERfS0_
 1865              		.syntax unified
 1866              		.thumb
 1867              		.thumb_func
 1868              		.fpu fpv4-sp-d16
 1869              		.type	_ZN8Platform19GetAutoSaveSettingsERfS0_, %function
 1870              	_ZN8Platform19GetAutoSaveSettingsERfS0_:
 1871              		@ args = 0, pretend = 0, frame = 0
 1872              		@ frame_needed = 0, uses_anonymous_args = 0
 1873              		@ link register save eliminated.
 1874 0000 0346     		mov	r3, r0
 1875 0002 90F8C409 		ldrb	r0, [r0, #2500]	@ zero_extendqisi2
 1876 0006 B8B1     		cbz	r0, .L267
 1877 0008 B3F8B009 		ldrh	r0, [r3, #2480]
 1878 000c DFED0B6A 		vldr.32	s13, .L271
 1879 0010 07EE100A 		vmov	s14, r0	@ int
 1880 0014 B8EEC77A 		vcvt.f32.s32	s14, s14
 1881 0018 27EE267A 		vmul.f32	s14, s14, s13
ARM GAS  C:\Users\THOMAS~1.CAM\AppData\Local\Temp\cco4TuUn.s 			page 34


 1882 001c 81ED007A 		vstr.32	s14, [r1]
 1883 0020 B3F8B219 		ldrh	r1, [r3, #2482]
 1884 0024 07EE901A 		vmov	s15, r1	@ int
 1885 0028 F8EEE77A 		vcvt.f32.s32	s15, s15
 1886 002c 67EEA67A 		vmul.f32	s15, s15, s13
 1887 0030 C2ED007A 		vstr.32	s15, [r2]
 1888 0034 93F8C409 		ldrb	r0, [r3, #2500]	@ zero_extendqisi2
 1889              	.L267:
 1890 0038 7047     		bx	lr
 1891              	.L272:
 1892 003a 00BF     		.align	2
 1893              	.L271:
 1894 003c 3333113C 		.word	1007760179
 1895              		.size	_ZN8Platform19GetAutoSaveSettingsERfS0_, .-_ZN8Platform19GetAutoSaveSettingsERfS0_
 1896              		.section	.text._ZNK8Platform16WriteFanSettingsEP9FileStore,"ax",%progbits
 1897              		.align	1
 1898              		.p2align 2,,3
 1899              		.global	_ZNK8Platform16WriteFanSettingsEP9FileStore
 1900              		.syntax unified
 1901              		.thumb
 1902              		.thumb_func
 1903              		.fpu fpv4-sp-d16
 1904              		.type	_ZNK8Platform16WriteFanSettingsEP9FileStore, %function
 1905              	_ZNK8Platform16WriteFanSettingsEP9FileStore:
 1906              		@ args = 0, pretend = 0, frame = 0
 1907              		@ frame_needed = 0, uses_anonymous_args = 0
 1908 0000 70B5     		push	{r4, r5, r6, lr}
 1909 0002 0E46     		mov	r6, r1
 1910 0004 00F2D475 		addw	r5, r0, #2004
 1911 0008 0024     		movs	r4, #0
 1912              	.L274:
 1913 000a 2246     		mov	r2, r4
 1914 000c 2846     		mov	r0, r5
 1915 000e 3146     		mov	r1, r6
 1916 0010 FFF7FEFF 		bl	_ZNK3Fan13WriteSettingsEP9FileStorej
 1917 0014 2C35     		adds	r5, r5, #44
 1918 0016 0134     		adds	r4, r4, #1
 1919 0018 08B1     		cbz	r0, .L275
 1920 001a 092C     		cmp	r4, #9
 1921 001c F5D1     		bne	.L274
 1922              	.L275:
 1923 001e 70BD     		pop	{r4, r5, r6, pc}
 1924              		.size	_ZNK8Platform16WriteFanSettingsEP9FileStore, .-_ZNK8Platform16WriteFanSettingsEP9FileStore
 1925              		.section	.text._ZNK8Platform26AdcReadingToCpuTemperatureEm,"ax",%progbits
 1926              		.align	1
 1927              		.p2align 2,,3
 1928              		.global	_ZNK8Platform26AdcReadingToCpuTemperatureEm
 1929              		.syntax unified
 1930              		.thumb
 1931              		.thumb_func
 1932              		.fpu fpv4-sp-d16
 1933              		.type	_ZNK8Platform26AdcReadingToCpuTemperatureEm, %function
 1934              	_ZNK8Platform26AdcReadingToCpuTemperatureEm:
 1935              		@ args = 0, pretend = 0, frame = 0
 1936              		@ frame_needed = 0, uses_anonymous_args = 0
 1937              		@ link register save eliminated.
 1938 0000 07EE901A 		vmov	s15, r1	@ int
ARM GAS  C:\Users\THOMAS~1.CAM\AppData\Local\Temp\cco4TuUn.s 			page 35


 1939 0004 DFED0A6A 		vldr.32	s13, .L282
 1940 0008 9FED0A7A 		vldr.32	s14, .L282+4
 1941 000c B8EE676A 		vcvt.f32.u32	s12, s15
 1942 0010 DFED097A 		vldr.32	s15, .L282+8
 1943 0014 E6EE267A 		vfma.f32	s15, s12, s13
 1944 0018 00F5E360 		add	r0, r0, #1816
 1945 001c B3EE0B0A 		vmov.f32	s0, #2.7e+1
 1946 0020 A7EE870A 		vfma.f32	s0, s15, s14
 1947 0024 D0ED007A 		vldr.32	s15, [r0]
 1948 0028 30EE270A 		vadd.f32	s0, s0, s15
 1949 002c 7047     		bx	lr
 1950              	.L283:
 1951 002e 00BF     		.align	2
 1952              	.L282:
 1953 0030 3333D337 		.word	936588083
 1954 0034 16C45443 		.word	1129628694
 1955 0038 EC51B8BF 		.word	-1078439444
 1956              		.size	_ZNK8Platform26AdcReadingToCpuTemperatureEm, .-_ZNK8Platform26AdcReadingToCpuTemperatureEm
 1957              		.section	.text._ZN8Platform20InitialiseInterruptsEv,"ax",%progbits
 1958              		.align	1
 1959              		.p2align 2,,3
 1960              		.global	_ZN8Platform20InitialiseInterruptsEv
 1961              		.syntax unified
 1962              		.thumb
 1963              		.thumb_func
 1964              		.fpu fpv4-sp-d16
 1965              		.type	_ZN8Platform20InitialiseInterruptsEv, %function
 1966              	_ZN8Platform20InitialiseInterruptsEv:
 1967              		@ args = 0, pretend = 0, frame = 0
 1968              		@ frame_needed = 0, uses_anonymous_args = 0
 1969 0000 2DE9F041 		push	{r4, r5, r6, r7, r8, lr}
 1970 0004 3349     		ldr	r1, .L290
 1971 0006 344C     		ldr	r4, .L290+4
 1972 0008 344E     		ldr	r6, .L290+8
 1973 000a 4FF0300C 		mov	ip, #48
 1974 000e 2023     		movs	r3, #32
 1975 0010 1022     		movs	r2, #16
 1976 0012 0027     		movs	r7, #0
 1977 0014 4FF06008 		mov	r8, #96
 1978 0018 84F80473 		strb	r7, [r4, #772]
 1979 001c 0546     		mov	r5, r0
 1980 001e 81F823C0 		strb	ip, [r1, #35]
 1981 0022 3846     		mov	r0, r7
 1982 0024 84F80723 		strb	r2, [r4, #775]
 1983 0028 84F82D83 		strb	r8, [r4, #813]
 1984 002c 84F80F33 		strb	r3, [r4, #783]
 1985 0030 FFF7FEFF 		bl	pmc_set_writeprotect
 1986 0034 1720     		movs	r0, #23
 1987 0036 FFF7FEFF 		bl	pmc_enable_periph_clk
 1988 003a 48F20342 		movw	r2, #33795
 1989 003e 3046     		mov	r0, r6
 1990 0040 0221     		movs	r1, #2
 1991 0042 FFF7FEFF 		bl	tc_init
 1992 0046 4FF0FF33 		mov	r3, #-1
 1993 004a C6F8A830 		str	r3, [r6, #168]
 1994 004e 3046     		mov	r0, r6
 1995 0050 0221     		movs	r1, #2
ARM GAS  C:\Users\THOMAS~1.CAM\AppData\Local\Temp\cco4TuUn.s 			page 36


 1996 0052 FFF7FEFF 		bl	tc_start
 1997 0056 0221     		movs	r1, #2
 1998 0058 3046     		mov	r0, r6
 1999 005a FFF7FEFF 		bl	tc_get_status
 2000 005e 4022     		movs	r2, #64
 2001 0060 5020     		movs	r0, #80
 2002 0062 4FF40001 		mov	r1, #8388608
 2003 0066 8023     		movs	r3, #128
 2004 0068 84F81703 		strb	r0, [r4, #791]
 2005 006c 2160     		str	r1, [r4]
 2006 006e 84F80923 		strb	r2, [r4, #777]
 2007 0072 84F80A23 		strb	r2, [r4, #778]
 2008 0076 84F80B23 		strb	r2, [r4, #779]
 2009 007a 84F80C23 		strb	r2, [r4, #780]
 2010 007e 84F80D23 		strb	r2, [r4, #781]
 2011 0082 84F82383 		strb	r8, [r4, #803]
 2012 0086 84F81133 		strb	r3, [r4, #785]
 2013 008a 95F86009 		ldrb	r0, [r5, #2400]	@ zero_extendqisi2
 2014 008e FF28     		cmp	r0, #255
 2015 0090 04D0     		beq	.L285
 2016 0092 3B46     		mov	r3, r7
 2017 0094 0422     		movs	r2, #4
 2018 0096 1249     		ldr	r1, .L290+12
 2019 0098 FFF7FEFF 		bl	_Z15attachInterruptmPFv17CallbackParameterE13InterruptModeS_
 2020              	.L285:
 2021 009c 0022     		movs	r2, #0
 2022 009e 4FF48073 		mov	r3, #256
 2023 00a2 85F89629 		strb	r2, [r5, #2454]
 2024 00a6 C5F89829 		str	r2, [r5, #2456]
 2025 00aa 4FF40051 		mov	r1, #8192
 2026 00ae 1A46     		mov	r2, r3
 2027 00b0 0C48     		ldr	r0, .L290+16
 2028 00b2 FFF7FEFF 		bl	wdt_init
 2029 00b6 8023     		movs	r3, #128
 2030 00b8 1A46     		mov	r2, r3
 2031 00ba 4FF48051 		mov	r1, #4096
 2032 00be 0A48     		ldr	r0, .L290+20
 2033 00c0 FFF7FEFF 		bl	rswdt_init
 2034 00c4 044A     		ldr	r2, .L290+4
 2035 00c6 1021     		movs	r1, #16
 2036 00c8 0123     		movs	r3, #1
 2037 00ca 1160     		str	r1, [r2]
 2038 00cc 85F80431 		strb	r3, [r5, #260]
 2039 00d0 BDE8F081 		pop	{r4, r5, r6, r7, r8, pc}
 2040              	.L291:
 2041              		.align	2
 2042              	.L290:
 2043 00d4 00ED00E0 		.word	-536810240
 2044 00d8 00E100E0 		.word	-536813312
 2045 00dc 00000940 		.word	1074331648
 2046 00e0 00000000 		.word	_ZL12FanInterrupt17CallbackParameter
 2047 00e4 50180E40 		.word	1074665552
 2048 00e8 00190E40 		.word	1074665728
 2049              		.size	_ZN8Platform20InitialiseInterruptsEv, .-_ZN8Platform20InitialiseInterruptsEv
 2050              		.section	.text._ZNK8Platform13GetStackUsageEPmS0_S0_,"ax",%progbits
 2051              		.align	1
 2052              		.p2align 2,,3
ARM GAS  C:\Users\THOMAS~1.CAM\AppData\Local\Temp\cco4TuUn.s 			page 37


 2053              		.global	_ZNK8Platform13GetStackUsageEPmS0_S0_
 2054              		.syntax unified
 2055              		.thumb
 2056              		.thumb_func
 2057              		.fpu fpv4-sp-d16
 2058              		.type	_ZNK8Platform13GetStackUsageEPmS0_S0_, %function
 2059              	_ZNK8Platform13GetStackUsageEPmS0_S0_:
 2060              		@ args = 0, pretend = 0, frame = 0
 2061              		@ frame_needed = 0, uses_anonymous_args = 0
 2062 0000 2DE9F047 		push	{r4, r5, r6, r7, r8, r9, r10, lr}
 2063 0004 0020     		movs	r0, #0
 2064 0006 9146     		mov	r9, r2
 2065 0008 8A46     		mov	r10, r1
 2066 000a 9846     		mov	r8, r3
 2067 000c FFF7FEFF 		bl	sbrk
 2068 0010 6A46     		mov	r2, sp
 2069 0012 8242     		cmp	r2, r0
 2070 0014 23D9     		bls	.L300
 2071 0016 0378     		ldrb	r3, [r0]	@ zero_extendqisi2
 2072 0018 A52B     		cmp	r3, #165
 2073 001a 20D1     		bne	.L300
 2074 001c 441C     		adds	r4, r0, #1
 2075 001e 6F46     		mov	r7, sp
 2076 0020 02E0     		b	.L294
 2077              	.L295:
 2078 0022 2E78     		ldrb	r6, [r5]	@ zero_extendqisi2
 2079 0024 A52E     		cmp	r6, #165
 2080 0026 04D1     		bne	.L293
 2081              	.L294:
 2082 0028 BC42     		cmp	r4, r7
 2083 002a 2546     		mov	r5, r4
 2084 002c 04F10104 		add	r4, r4, #1
 2085 0030 F7D1     		bne	.L295
 2086              	.L293:
 2087 0032 BAF1000F 		cmp	r10, #0
 2088 0036 03D0     		beq	.L296
 2089 0038 0A4C     		ldr	r4, .L311
 2090 003a A41A     		subs	r4, r4, r2
 2091 003c CAF80040 		str	r4, [r10]
 2092              	.L296:
 2093 0040 B9F1000F 		cmp	r9, #0
 2094 0044 03D0     		beq	.L297
 2095 0046 0749     		ldr	r1, .L311
 2096 0048 491B     		subs	r1, r1, r5
 2097 004a C9F80010 		str	r1, [r9]
 2098              	.L297:
 2099 004e B8F1000F 		cmp	r8, #0
 2100 0052 02D0     		beq	.L292
 2101 0054 2D1A     		subs	r5, r5, r0
 2102 0056 C8F80050 		str	r5, [r8]
 2103              	.L292:
 2104 005a BDE8F087 		pop	{r4, r5, r6, r7, r8, r9, r10, pc}
 2105              	.L300:
 2106 005e 0546     		mov	r5, r0
 2107 0060 E7E7     		b	.L293
 2108              	.L312:
 2109 0062 00BF     		.align	2
ARM GAS  C:\Users\THOMAS~1.CAM\AppData\Local\Temp\cco4TuUn.s 			page 38


 2110              	.L311:
 2111 0064 00000000 		.word	_estack
 2112              		.size	_ZNK8Platform13GetStackUsageEPmS0_S0_, .-_ZNK8Platform13GetStackUsageEPmS0_S0_
 2113              		.section	.text._ZN8Platform19DriverCoolingFansOnEm,"ax",%progbits
 2114              		.align	1
 2115              		.p2align 2,,3
 2116              		.global	_ZN8Platform19DriverCoolingFansOnEm
 2117              		.syntax unified
 2118              		.thumb
 2119              		.thumb_func
 2120              		.fpu fpv4-sp-d16
 2121              		.type	_ZN8Platform19DriverCoolingFansOnEm, %function
 2122              	_ZN8Platform19DriverCoolingFansOnEm:
 2123              		@ args = 0, pretend = 0, frame = 0
 2124              		@ frame_needed = 0, uses_anonymous_args = 0
 2125 0000 CA07     		lsls	r2, r1, #31
 2126 0002 38B5     		push	{r3, r4, r5, lr}
 2127 0004 0C46     		mov	r4, r1
 2128 0006 0546     		mov	r5, r0
 2129 0008 0AD4     		bmi	.L323
 2130              	.L314:
 2131 000a A307     		lsls	r3, r4, #30
 2132 000c 00D4     		bmi	.L324
 2133 000e 38BD     		pop	{r3, r4, r5, pc}
 2134              	.L324:
 2135 0010 FFF7FEFF 		bl	millis
 2136 0014 0123     		movs	r3, #1
 2137 0016 C5F8DC03 		str	r0, [r5, #988]
 2138 001a 85F8D733 		strb	r3, [r5, #983]
 2139 001e 38BD     		pop	{r3, r4, r5, pc}
 2140              	.L323:
 2141 0020 FFF7FEFF 		bl	millis
 2142 0024 0123     		movs	r3, #1
 2143 0026 C5F8D803 		str	r0, [r5, #984]
 2144 002a 85F8D633 		strb	r3, [r5, #982]
 2145 002e ECE7     		b	.L314
 2146              		.size	_ZN8Platform19DriverCoolingFansOnEm, .-_ZN8Platform19DriverCoolingFansOnEm
 2147              		.section	.text._ZN8Platform9SetHeaterEjft,"ax",%progbits
 2148              		.align	1
 2149              		.p2align 2,,3
 2150              		.global	_ZN8Platform9SetHeaterEjft
 2151              		.syntax unified
 2152              		.thumb
 2153              		.thumb_func
 2154              		.fpu fpv4-sp-d16
 2155              		.type	_ZN8Platform9SetHeaterEjft, %function
 2156              	_ZN8Platform9SetHeaterEjft:
 2157              		@ args = 0, pretend = 0, frame = 0
 2158              		@ frame_needed = 0, uses_anonymous_args = 0
 2159 0000 10B5     		push	{r4, lr}
 2160 0002 2DED028B 		vpush.64	{d8}
 2161 0006 4418     		adds	r4, r0, r1
 2162 0008 94F8BC07 		ldrb	r0, [r4, #1980]	@ zero_extendqisi2
 2163 000c FF28     		cmp	r0, #255
 2164 000e 17D0     		beq	.L325
 2165 0010 B0EE408A 		vmov.f32	s16, s0
 2166 0014 52B1     		cbz	r2, .L330
ARM GAS  C:\Users\THOMAS~1.CAM\AppData\Local\Temp\cco4TuUn.s 			page 39


 2167              	.L327:
 2168 0016 B7EE000A 		vmov.f32	s0, #1.0e+0
 2169 001a 30EE480A 		vsub.f32	s0, s0, s16
 2170 001e BDEC028B 		vldm	sp!, {d8}
 2171 0022 1146     		mov	r1, r2
 2172 0024 BDE81040 		pop	{r4, lr}
 2173 0028 FFF7FEBF 		b	_ZN6IoPort11WriteAnalogEhft
 2174              	.L330:
 2175 002c 084B     		ldr	r3, .L331
 2176 002e 49B2     		sxtb	r1, r1
 2177 0030 5869     		ldr	r0, [r3, #20]
 2178 0032 FFF7FEFF 		bl	_ZNK4Heat20IsBedOrChamberHeaterEa
 2179 0036 30B1     		cbz	r0, .L328
 2180 0038 94F8BC07 		ldrb	r0, [r4, #1980]	@ zero_extendqisi2
 2181 003c 0A22     		movs	r2, #10
 2182 003e EAE7     		b	.L327
 2183              	.L325:
 2184 0040 BDEC028B 		vldm	sp!, {d8}
 2185 0044 10BD     		pop	{r4, pc}
 2186              	.L328:
 2187 0046 94F8BC07 		ldrb	r0, [r4, #1980]	@ zero_extendqisi2
 2188 004a FA22     		movs	r2, #250
 2189 004c E3E7     		b	.L327
 2190              	.L332:
 2191 004e 00BF     		.align	2
 2192              	.L331:
 2193 0050 00000000 		.word	reprap
 2194              		.size	_ZN8Platform9SetHeaterEjft, .-_ZN8Platform9SetHeaterEjft
 2195              		.section	.text._ZN8Platform23UpdateConfiguredHeatersEv,"ax",%progbits
 2196              		.align	1
 2197              		.p2align 2,,3
 2198              		.global	_ZN8Platform23UpdateConfiguredHeatersEv
 2199              		.syntax unified
 2200              		.thumb
 2201              		.thumb_func
 2202              		.fpu fpv4-sp-d16
 2203              		.type	_ZN8Platform23UpdateConfiguredHeatersEv, %function
 2204              	_ZN8Platform23UpdateConfiguredHeatersEv:
 2205              		@ args = 0, pretend = 0, frame = 0
 2206              		@ frame_needed = 0, uses_anonymous_args = 0
 2207 0000 F8B5     		push	{r3, r4, r5, r6, r7, lr}
 2208 0002 214B     		ldr	r3, .L347
 2209 0004 5C69     		ldr	r4, [r3, #20]
 2210 0006 0023     		movs	r3, #0
 2211 0008 0546     		mov	r5, r0
 2212 000a C0F8CC37 		str	r3, [r0, #1996]
 2213 000e 04F1D602 		add	r2, r4, #214
 2214 0012 04F1DA00 		add	r0, r4, #218
 2215 0016 0126     		movs	r6, #1
 2216              	.L334:
 2217 0018 12F9013B 		ldrsb	r3, [r2], #1
 2218 001c 002B     		cmp	r3, #0
 2219 001e 06DB     		blt	.L338
 2220 0020 D5F8CC17 		ldr	r1, [r5, #1996]
 2221 0024 06FA03F3 		lsl	r3, r6, r3
 2222 0028 0B43     		orrs	r3, r3, r1
 2223 002a C5F8CC37 		str	r3, [r5, #1996]
ARM GAS  C:\Users\THOMAS~1.CAM\AppData\Local\Temp\cco4TuUn.s 			page 40


 2224              	.L338:
 2225 002e 8242     		cmp	r2, r0
 2226 0030 F2D1     		bne	.L334
 2227 0032 94F9DA30 		ldrsb	r3, [r4, #218]
 2228 0036 002B     		cmp	r3, #0
 2229 0038 07DB     		blt	.L335
 2230 003a D5F8CC27 		ldr	r2, [r5, #1996]
 2231 003e 0121     		movs	r1, #1
 2232 0040 01FA03F3 		lsl	r3, r1, r3
 2233 0044 1A43     		orrs	r2, r2, r3
 2234 0046 C5F8CC27 		str	r2, [r5, #1996]
 2235              	.L335:
 2236 004a 94F9DB30 		ldrsb	r3, [r4, #219]
 2237 004e 002B     		cmp	r3, #0
 2238 0050 07DB     		blt	.L336
 2239 0052 D5F8CC27 		ldr	r2, [r5, #1996]
 2240 0056 0121     		movs	r1, #1
 2241 0058 01FA03F3 		lsl	r3, r1, r3
 2242 005c 1A43     		orrs	r2, r2, r3
 2243 005e C5F8CC27 		str	r2, [r5, #1996]
 2244              	.L336:
 2245 0062 094E     		ldr	r6, .L347
 2246 0064 0024     		movs	r4, #0
 2247 0066 0127     		movs	r7, #1
 2248              	.L337:
 2249 0068 61B2     		sxtb	r1, r4
 2250 006a 3046     		mov	r0, r6
 2251 006c FFF7FEFF 		bl	_ZNK6RepRap22IsHeaterAssignedToToolEa
 2252 0070 30B1     		cbz	r0, .L340
 2253 0072 D5F8CC37 		ldr	r3, [r5, #1996]
 2254 0076 07FA04F2 		lsl	r2, r7, r4
 2255 007a 1343     		orrs	r3, r3, r2
 2256 007c C5F8CC37 		str	r3, [r5, #1996]
 2257              	.L340:
 2258 0080 0134     		adds	r4, r4, #1
 2259 0082 082C     		cmp	r4, #8
 2260 0084 F0D1     		bne	.L337
 2261 0086 F8BD     		pop	{r3, r4, r5, r6, r7, pc}
 2262              	.L348:
 2263              		.align	2
 2264              	.L347:
 2265 0088 00000000 		.word	reprap
 2266              		.size	_ZN8Platform23UpdateConfiguredHeatersEv, .-_ZN8Platform23UpdateConfiguredHeatersEv
 2267              		.section	.text._ZNK8Platform17EndStopInputStateEj,"ax",%progbits
 2268              		.align	1
 2269              		.p2align 2,,3
 2270              		.global	_ZNK8Platform17EndStopInputStateEj
 2271              		.syntax unified
 2272              		.thumb
 2273              		.thumb_func
 2274              		.fpu fpv4-sp-d16
 2275              		.type	_ZNK8Platform17EndStopInputStateEj, %function
 2276              	_ZNK8Platform17EndStopInputStateEj:
 2277              		@ args = 0, pretend = 0, frame = 0
 2278              		@ frame_needed = 0, uses_anonymous_args = 0
 2279              		@ link register save eliminated.
 2280 0000 0144     		add	r1, r1, r0
ARM GAS  C:\Users\THOMAS~1.CAM\AppData\Local\Temp\cco4TuUn.s 			page 41


 2281 0002 91F83001 		ldrb	r0, [r1, #304]	@ zero_extendqisi2
 2282 0006 FF28     		cmp	r0, #255
 2283 0008 01D0     		beq	.L350
 2284 000a FFF7FEBF 		b	_ZN6IoPort7ReadPinEh
 2285              	.L350:
 2286 000e 0020     		movs	r0, #0
 2287 0010 7047     		bx	lr
 2288              		.size	_ZNK8Platform17EndStopInputStateEj, .-_ZNK8Platform17EndStopInputStateEj
 2289 0012 00BF     		.section	.text._ZNK8Platform19GetAllEndstopStatesEv,"ax",%progbits
 2290              		.align	1
 2291              		.p2align 2,,3
 2292              		.global	_ZNK8Platform19GetAllEndstopStatesEv
 2293              		.syntax unified
 2294              		.thumb
 2295              		.thumb_func
 2296              		.fpu fpv4-sp-d16
 2297              		.type	_ZNK8Platform19GetAllEndstopStatesEv, %function
 2298              	_ZNK8Platform19GetAllEndstopStatesEv:
 2299              		@ args = 0, pretend = 0, frame = 0
 2300              		@ frame_needed = 0, uses_anonymous_args = 0
 2301 0000 F8B5     		push	{r3, r4, r5, r6, r7, lr}
 2302 0002 0024     		movs	r4, #0
 2303 0004 00F22F15 		addw	r5, r0, #303
 2304 0008 2646     		mov	r6, r4
 2305 000a 0127     		movs	r7, #1
 2306              	.L353:
 2307 000c 15F8013F 		ldrb	r3, [r5, #1]!	@ zero_extendqisi2
 2308 0010 FF2B     		cmp	r3, #255
 2309 0012 1846     		mov	r0, r3
 2310 0014 05D0     		beq	.L352
 2311 0016 FFF7FEFF 		bl	_ZN6IoPort7ReadPinEh
 2312 001a 10B1     		cbz	r0, .L352
 2313 001c 07FA04F3 		lsl	r3, r7, r4
 2314 0020 1E43     		orrs	r6, r6, r3
 2315              	.L352:
 2316 0022 0134     		adds	r4, r4, #1
 2317 0024 0C2C     		cmp	r4, #12
 2318 0026 F1D1     		bne	.L353
 2319 0028 3046     		mov	r0, r6
 2320 002a F8BD     		pop	{r3, r4, r5, r6, r7, pc}
 2321              		.size	_ZNK8Platform19GetAllEndstopStatesEv, .-_ZNK8Platform19GetAllEndstopStatesEv
 2322              		.section	.text._ZNK8Platform15GetZProbeResultEv,"ax",%progbits
 2323              		.align	1
 2324              		.p2align 2,,3
 2325              		.global	_ZNK8Platform15GetZProbeResultEv
 2326              		.syntax unified
 2327              		.thumb
 2328              		.thumb_func
 2329              		.fpu fpv4-sp-d16
 2330              		.type	_ZNK8Platform15GetZProbeResultEv, %function
 2331              	_ZNK8Platform15GetZProbeResultEv:
 2332              		@ args = 0, pretend = 0, frame = 0
 2333              		@ frame_needed = 0, uses_anonymous_args = 0
 2334 0000 10B5     		push	{r4, lr}
 2335 0002 0446     		mov	r4, r0
 2336 0004 FFF7FEFF 		bl	_ZNK8Platform16GetZProbeReadingEv
 2337 0008 94F8D430 		ldrb	r3, [r4, #212]	@ zero_extendqisi2
ARM GAS  C:\Users\THOMAS~1.CAM\AppData\Local\Temp\cco4TuUn.s 			page 42


 2338 000c 092B     		cmp	r3, #9
 2339 000e 08D8     		bhi	.L363
 2340 0010 0122     		movs	r2, #1
 2341 0012 02FA03F3 		lsl	r3, r2, r3
 2342 0016 40F22632 		movw	r2, #806
 2343 001a 1342     		tst	r3, r2
 2344 001c 0FD1     		bne	.L364
 2345 001e 1B07     		lsls	r3, r3, #28
 2346 0020 13D4     		bmi	.L365
 2347              	.L363:
 2348 0022 4434     		adds	r4, r4, #68
 2349              	.L366:
 2350 0024 2368     		ldr	r3, [r4]
 2351 0026 9842     		cmp	r0, r3
 2352 0028 0DDA     		bge	.L368
 2353              	.L371:
 2354 002a 00EB8000 		add	r0, r0, r0, lsl #2
 2355 002e 03EBC303 		add	r3, r3, r3, lsl #3
 2356 0032 B3EB400F 		cmp	r3, r0, lsl #1
 2357 0036 D4BF     		ite	le
 2358 0038 0320     		movle	r0, #3
 2359 003a 0020     		movgt	r0, #0
 2360 003c 10BD     		pop	{r4, pc}
 2361              	.L364:
 2362 003e 7434     		adds	r4, r4, #116
 2363 0040 2368     		ldr	r3, [r4]
 2364 0042 9842     		cmp	r0, r3
 2365 0044 F1DB     		blt	.L371
 2366              	.L368:
 2367 0046 0120     		movs	r0, #1
 2368 0048 10BD     		pop	{r4, pc}
 2369              	.L365:
 2370 004a A434     		adds	r4, r4, #164
 2371 004c EAE7     		b	.L366
 2372              		.size	_ZNK8Platform15GetZProbeResultEv, .-_ZNK8Platform15GetZProbeResultEv
 2373 004e 00BF     		.section	.text._ZNK8Platform7StoppedEj,"ax",%progbits
 2374              		.align	1
 2375              		.p2align 2,,3
 2376              		.global	_ZNK8Platform7StoppedEj
 2377              		.syntax unified
 2378              		.thumb
 2379              		.thumb_func
 2380              		.fpu fpv4-sp-d16
 2381              		.type	_ZNK8Platform7StoppedEj, %function
 2382              	_ZNK8Platform7StoppedEj:
 2383              		@ args = 0, pretend = 0, frame = 0
 2384              		@ frame_needed = 0, uses_anonymous_args = 0
 2385 0000 0B29     		cmp	r1, #11
 2386 0002 19D8     		bhi	.L421
 2387 0004 70B5     		push	{r4, r5, r6, lr}
 2388 0006 00EB8105 		add	r5, r0, r1, lsl #2
 2389 000a 0446     		mov	r4, r0
 2390 000c D5F89037 		ldr	r3, [r5, #1936]
 2391 0010 032B     		cmp	r3, #3
 2392 0012 0FD8     		bhi	.L392
 2393 0014 DFE803F0 		tbb	[pc, r3]
 2394              	.L376:
ARM GAS  C:\Users\THOMAS~1.CAM\AppData\Local\Temp\cco4TuUn.s 			page 43


 2395 0018 28       		.byte	(.L375-.L376)/2
 2396 0019 32       		.byte	(.L377-.L376)/2
 2397 001a 3C       		.byte	(.L378-.L376)/2
 2398 001b 12       		.byte	(.L379-.L376)/2
 2399              		.p2align 1
 2400              	.L383:
 2401 001c 0129     		cmp	r1, #1
 2402 001e 55D9     		bls	.L422
 2403 0020 0329     		cmp	r1, #3
 2404 0022 16D1     		bne	.L411
 2405 0024 FFF7FEFF 		bl	_ZNK8Platform19AnyAxisMotorStalledEj
 2406 0028 C0B9     		cbnz	r0, .L419
 2407 002a 2046     		mov	r0, r4
 2408 002c 0421     		movs	r1, #4
 2409 002e FFF7FEFF 		bl	_ZNK8Platform19AnyAxisMotorStalledEj
 2410 0032 98B9     		cbnz	r0, .L419
 2411              	.L392:
 2412 0034 0020     		movs	r0, #0
 2413              	.L372:
 2414 0036 70BD     		pop	{r4, r5, r6, pc}
 2415              	.L421:
 2416 0038 0020     		movs	r0, #0
 2417 003a 7047     		bx	lr
 2418              	.L379:
 2419 003c 294B     		ldr	r3, .L425
 2420 003e 1B69     		ldr	r3, [r3, #16]
 2421 0040 D3F85C3A 		ldr	r3, [r3, #2652]
 2422 0044 9E7B     		ldrb	r6, [r3, #14]	@ zero_extendqisi2
 2423 0046 022E     		cmp	r6, #2
 2424 0048 3AD0     		beq	.L382
 2425 004a 052E     		cmp	r6, #5
 2426 004c E6D0     		beq	.L383
 2427 004e 012E     		cmp	r6, #1
 2428 0050 27D0     		beq	.L423
 2429              	.L411:
 2430 0052 2046     		mov	r0, r4
 2431 0054 FFF7FEFF 		bl	_ZNK8Platform19AnyAxisMotorStalledEj
 2432 0058 0028     		cmp	r0, #0
 2433 005a EBD0     		beq	.L392
 2434              	.L419:
 2435 005c D5F86C37 		ldr	r3, [r5, #1900]
 2436 0060 022B     		cmp	r3, #2
 2437 0062 31D0     		beq	.L424
 2438              	.L380:
 2439 0064 0120     		movs	r0, #1
 2440 0066 70BD     		pop	{r4, r5, r6, pc}
 2441              	.L375:
 2442 0068 0144     		add	r1, r1, r0
 2443 006a 91F83001 		ldrb	r0, [r1, #304]	@ zero_extendqisi2
 2444 006e FF28     		cmp	r0, #255
 2445 0070 E0D0     		beq	.L392
 2446 0072 FFF7FEFF 		bl	_ZN6IoPort7ReadPinEh
 2447 0076 0028     		cmp	r0, #0
 2448 0078 F0D0     		beq	.L419
 2449 007a DBE7     		b	.L392
 2450              	.L377:
 2451 007c 0144     		add	r1, r1, r0
ARM GAS  C:\Users\THOMAS~1.CAM\AppData\Local\Temp\cco4TuUn.s 			page 44


 2452 007e 91F83001 		ldrb	r0, [r1, #304]	@ zero_extendqisi2
 2453 0082 FF28     		cmp	r0, #255
 2454 0084 D6D0     		beq	.L392
 2455 0086 FFF7FEFF 		bl	_ZN6IoPort7ReadPinEh
 2456 008a 0028     		cmp	r0, #0
 2457 008c E6D1     		bne	.L419
 2458 008e D1E7     		b	.L392
 2459              	.L378:
 2460 0090 FFF7FEFF 		bl	_ZNK8Platform15GetZProbeResultEv
 2461 0094 0128     		cmp	r0, #1
 2462 0096 CED1     		bne	.L372
 2463 0098 D5F86C07 		ldr	r0, [r5, #1900]
 2464 009c 0228     		cmp	r0, #2
 2465 009e E1D1     		bne	.L380
 2466 00a0 70BD     		pop	{r4, r5, r6, pc}
 2467              	.L423:
 2468 00a2 0129     		cmp	r1, #1
 2469 00a4 D5D8     		bhi	.L411
 2470              	.L417:
 2471 00a6 0021     		movs	r1, #0
 2472 00a8 2046     		mov	r0, r4
 2473 00aa FFF7FEFF 		bl	_ZNK8Platform19AnyAxisMotorStalledEj
 2474 00ae 0028     		cmp	r0, #0
 2475 00b0 D4D1     		bne	.L419
 2476 00b2 3146     		mov	r1, r6
 2477 00b4 2046     		mov	r0, r4
 2478 00b6 FFF7FEFF 		bl	_ZNK8Platform19AnyAxisMotorStalledEj
 2479 00ba 0028     		cmp	r0, #0
 2480 00bc CED1     		bne	.L419
 2481 00be B9E7     		b	.L392
 2482              	.L382:
 2483 00c0 31F00203 		bics	r3, r1, #2
 2484 00c4 C5D1     		bne	.L411
 2485 00c6 EEE7     		b	.L417
 2486              	.L424:
 2487 00c8 0220     		movs	r0, #2
 2488 00ca 70BD     		pop	{r4, r5, r6, pc}
 2489              	.L422:
 2490 00cc 0021     		movs	r1, #0
 2491 00ce FFF7FEFF 		bl	_ZNK8Platform19AnyAxisMotorStalledEj
 2492 00d2 0028     		cmp	r0, #0
 2493 00d4 C2D1     		bne	.L419
 2494 00d6 2046     		mov	r0, r4
 2495 00d8 0121     		movs	r1, #1
 2496 00da FFF7FEFF 		bl	_ZNK8Platform19AnyAxisMotorStalledEj
 2497 00de 0028     		cmp	r0, #0
 2498 00e0 BCD1     		bne	.L419
 2499 00e2 A7E7     		b	.L392
 2500              	.L426:
 2501              		.align	2
 2502              	.L425:
 2503 00e4 00000000 		.word	reprap
 2504              		.size	_ZNK8Platform7StoppedEj, .-_ZNK8Platform7StoppedEj
 2505              		.section	.text._ZNK8Platform23WritePlatformParametersEP9FileStoreb,"ax",%progbits
 2506              		.align	1
 2507              		.p2align 2,,3
 2508              		.global	_ZNK8Platform23WritePlatformParametersEP9FileStoreb
ARM GAS  C:\Users\THOMAS~1.CAM\AppData\Local\Temp\cco4TuUn.s 			page 45


 2509              		.syntax unified
 2510              		.thumb
 2511              		.thumb_func
 2512              		.fpu fpv4-sp-d16
 2513              		.type	_ZNK8Platform23WritePlatformParametersEP9FileStoreb, %function
 2514              	_ZNK8Platform23WritePlatformParametersEP9FileStoreb:
 2515              		@ args = 0, pretend = 0, frame = 0
 2516              		@ frame_needed = 0, uses_anonymous_args = 0
 2517 0000 70B5     		push	{r4, r5, r6, lr}
 2518 0002 D0F86437 		ldr	r3, [r0, #1892]
 2519 0006 0446     		mov	r4, r0
 2520 0008 0D46     		mov	r5, r1
 2521 000a 1646     		mov	r6, r2
 2522 000c 2BB9     		cbnz	r3, .L428
 2523 000e D0F86837 		ldr	r3, [r0, #1896]
 2524 0012 13B9     		cbnz	r3, .L428
 2525              	.L433:
 2526 0014 BEB9     		cbnz	r6, .L429
 2527 0016 0120     		movs	r0, #1
 2528 0018 70BD     		pop	{r4, r5, r6, pc}
 2529              	.L428:
 2530 001a 1E49     		ldr	r1, .L451
 2531 001c 2846     		mov	r0, r5
 2532 001e FFF7FEFF 		bl	_ZN9FileStore5WriteEPKc
 2533 0022 70B1     		cbz	r0, .L436
 2534 0024 D4F86417 		ldr	r1, [r4, #1892]
 2535 0028 59BB     		cbnz	r1, .L432
 2536              	.L435:
 2537 002a D4F86817 		ldr	r1, [r4, #1896]
 2538 002e 0029     		cmp	r1, #0
 2539 0030 F0D0     		beq	.L433
 2540 0032 0023     		movs	r3, #0
 2541 0034 04F21C72 		addw	r2, r4, #1820
 2542 0038 2846     		mov	r0, r5
 2543 003a FFF7FEFF 		bl	_ZN8Platform15WriteAxisLimitsEP9FileStoremPKfi.part.41
 2544 003e 0028     		cmp	r0, #0
 2545 0040 E8D1     		bne	.L433
 2546              	.L436:
 2547 0042 0020     		movs	r0, #0
 2548 0044 70BD     		pop	{r4, r5, r6, pc}
 2549              	.L429:
 2550 0046 1449     		ldr	r1, .L451+4
 2551 0048 2846     		mov	r0, r5
 2552 004a FFF7FEFF 		bl	_ZN9FileStore5WriteEPKc
 2553 004e 0028     		cmp	r0, #0
 2554 0050 F7D0     		beq	.L436
 2555 0052 0122     		movs	r2, #1
 2556 0054 2946     		mov	r1, r5
 2557 0056 04F17400 		add	r0, r4, #116
 2558 005a FFF7FEFF 		bl	_ZNK6ZProbe15WriteParametersEP9FileStorej
 2559 005e 0028     		cmp	r0, #0
 2560 0060 EFD0     		beq	.L436
 2561 0062 0322     		movs	r2, #3
 2562 0064 2946     		mov	r1, r5
 2563 0066 04F1A400 		add	r0, r4, #164
 2564 006a FFF7FEFF 		bl	_ZNK6ZProbe15WriteParametersEP9FileStorej
 2565 006e 0028     		cmp	r0, #0
ARM GAS  C:\Users\THOMAS~1.CAM\AppData\Local\Temp\cco4TuUn.s 			page 46


 2566 0070 E7D0     		beq	.L436
 2567 0072 2946     		mov	r1, r5
 2568 0074 04F14400 		add	r0, r4, #68
 2569 0078 0422     		movs	r2, #4
 2570 007a BDE87040 		pop	{r4, r5, r6, lr}
 2571 007e FFF7FEBF 		b	_ZNK6ZProbe15WriteParametersEP9FileStorej
 2572              	.L432:
 2573 0082 0123     		movs	r3, #1
 2574 0084 04F5E862 		add	r2, r4, #1856
 2575 0088 2846     		mov	r0, r5
 2576 008a FFF7FEFF 		bl	_ZN8Platform15WriteAxisLimitsEP9FileStoremPKfi.part.41
 2577 008e 0028     		cmp	r0, #0
 2578 0090 CBD1     		bne	.L435
 2579 0092 D6E7     		b	.L436
 2580              	.L452:
 2581              		.align	2
 2582              	.L451:
 2583 0094 00000000 		.word	.LC19
 2584 0098 18000000 		.word	.LC20
 2585              		.size	_ZNK8Platform23WritePlatformParametersEP9FileStoreb, .-_ZNK8Platform23WritePlatformParameter
 2586              		.section	.text._ZN8Platform15WriteAxisLimitsEP9FileStoremPKfi,"ax",%progbits
 2587              		.align	1
 2588              		.p2align 2,,3
 2589              		.global	_ZN8Platform15WriteAxisLimitsEP9FileStoremPKfi
 2590              		.syntax unified
 2591              		.thumb
 2592              		.thumb_func
 2593              		.fpu fpv4-sp-d16
 2594              		.type	_ZN8Platform15WriteAxisLimitsEP9FileStoremPKfi, %function
 2595              	_ZN8Platform15WriteAxisLimitsEP9FileStoremPKfi:
 2596              		@ args = 0, pretend = 0, frame = 0
 2597              		@ frame_needed = 0, uses_anonymous_args = 0
 2598              		@ link register save eliminated.
 2599 0000 09B9     		cbnz	r1, .L455
 2600 0002 0120     		movs	r0, #1
 2601 0004 7047     		bx	lr
 2602              	.L455:
 2603 0006 FFF7FEBF 		b	_ZN8Platform15WriteAxisLimitsEP9FileStoremPKfi.part.41
 2604              		.size	_ZN8Platform15WriteAxisLimitsEP9FileStoremPKfi, .-_ZN8Platform15WriteAxisLimitsEP9FileStorem
 2605 000a 00BF     		.section	.text._ZN8Platform12SetDirectionEjb,"ax",%progbits
 2606              		.align	1
 2607              		.p2align 2,,3
 2608              		.global	_ZN8Platform12SetDirectionEjb
 2609              		.syntax unified
 2610              		.thumb
 2611              		.thumb_func
 2612              		.fpu fpv4-sp-d16
 2613              		.type	_ZN8Platform12SetDirectionEjb, %function
 2614              	_ZN8Platform12SetDirectionEjb:
 2615              		@ args = 0, pretend = 0, frame = 0
 2616              		@ frame_needed = 0, uses_anonymous_args = 0
 2617 0000 2DE9F047 		push	{r4, r5, r6, r7, r8, r9, r10, lr}
 2618 0004 0546     		mov	r5, r0
 2619 0006 01F1D200 		add	r0, r1, #210
 2620 000a D5F8B833 		ldr	r3, [r5, #952]
 2621 000e 55F82060 		ldr	r6, [r5, r0, lsl #2]
 2622 0012 1E40     		ands	r6, r6, r3
ARM GAS  C:\Users\THOMAS~1.CAM\AppData\Local\Temp\cco4TuUn.s 			page 47


 2623 0014 1746     		mov	r7, r2
 2624 0016 09D0     		beq	.L457
 2625 0018 2A4B     		ldr	r3, .L478
 2626 001a D5F8B443 		ldr	r4, [r5, #948]
 2627 001e 1868     		ldr	r0, [r3]
 2628 0020 294A     		ldr	r2, .L478+4
 2629              	.L458:
 2630 0022 D2F89030 		ldr	r3, [r2, #144]
 2631 0026 1B1A     		subs	r3, r3, r0
 2632 0028 A342     		cmp	r3, r4
 2633 002a FAD3     		bcc	.L458
 2634              	.L457:
 2635 002c 274B     		ldr	r3, .L478+8
 2636 002e 9B69     		ldr	r3, [r3, #24]
 2637 0030 D3F89432 		ldr	r3, [r3, #660]
 2638 0034 9942     		cmp	r1, r3
 2639 0036 25D2     		bcs	.L459
 2640 0038 05EBC10A 		add	r10, r5, r1, lsl #3
 2641 003c DAF8F432 		ldr	r3, [r10, #756]
 2642 0040 C3B1     		cbz	r3, .L461
 2643 0042 5F31     		adds	r1, r1, #95
 2644 0044 DFF88C90 		ldr	r9, .L478+16
 2645 0048 05EBC104 		add	r4, r5, r1, lsl #3
 2646 004c 4FF00008 		mov	r8, #0
 2647              	.L464:
 2648 0050 14F8013B 		ldrb	r3, [r4], #1	@ zero_extendqisi2
 2649 0054 EA18     		adds	r2, r5, r3
 2650 0056 08F10108 		add	r8, r8, #1
 2651 005a 92F81811 		ldrb	r1, [r2, #280]	@ zero_extendqisi2
 2652 005e 0FB9     		cbnz	r7, .L462
 2653 0060 81F00101 		eor	r1, r1, #1
 2654              	.L462:
 2655 0064 19F80300 		ldrb	r0, [r9, r3]	@ zero_extendqisi2
 2656 0068 FFF7FEFF 		bl	digitalWrite
 2657 006c DAF8F432 		ldr	r3, [r10, #756]
 2658 0070 4345     		cmp	r3, r8
 2659 0072 EDD8     		bhi	.L464
 2660              	.L461:
 2661 0074 26B1     		cbz	r6, .L456
 2662 0076 144A     		ldr	r2, .L478+4
 2663 0078 154B     		ldr	r3, .L478+12
 2664 007a D2F89020 		ldr	r2, [r2, #144]
 2665 007e 1A60     		str	r2, [r3]
 2666              	.L456:
 2667 0080 BDE8F087 		pop	{r4, r5, r6, r7, r8, r9, r10, pc}
 2668              	.L459:
 2669 0084 0B29     		cmp	r1, #11
 2670 0086 0CD8     		bhi	.L465
 2671 0088 C91A     		subs	r1, r1, r3
 2672 008a 2944     		add	r1, r1, r5
 2673 008c 91F83C23 		ldrb	r2, [r1, #828]	@ zero_extendqisi2
 2674 0090 AB18     		adds	r3, r5, r2
 2675 0092 93F81811 		ldrb	r1, [r3, #280]	@ zero_extendqisi2
 2676 0096 6FB1     		cbz	r7, .L477
 2677              	.L467:
 2678 0098 0E4B     		ldr	r3, .L478+16
 2679 009a 985C     		ldrb	r0, [r3, r2]	@ zero_extendqisi2
ARM GAS  C:\Users\THOMAS~1.CAM\AppData\Local\Temp\cco4TuUn.s 			page 48


 2680 009c FFF7FEFF 		bl	digitalWrite
 2681 00a0 E8E7     		b	.L461
 2682              	.L465:
 2683 00a2 1729     		cmp	r1, #23
 2684 00a4 E6D8     		bhi	.L461
 2685 00a6 0C39     		subs	r1, r1, #12
 2686 00a8 CAB2     		uxtb	r2, r1
 2687 00aa AB18     		adds	r3, r5, r2
 2688 00ac 93F81811 		ldrb	r1, [r3, #280]	@ zero_extendqisi2
 2689 00b0 002F     		cmp	r7, #0
 2690 00b2 F1D1     		bne	.L467
 2691              	.L477:
 2692 00b4 074B     		ldr	r3, .L478+16
 2693 00b6 81F00101 		eor	r1, r1, #1
 2694 00ba 985C     		ldrb	r0, [r3, r2]	@ zero_extendqisi2
 2695 00bc FFF7FEFF 		bl	digitalWrite
 2696 00c0 D8E7     		b	.L461
 2697              	.L479:
 2698 00c2 00BF     		.align	2
 2699              	.L478:
 2700 00c4 00000000 		.word	_ZN3DDA15lastStepLowTimeE
 2701 00c8 00000940 		.word	1074331648
 2702 00cc 00000000 		.word	reprap
 2703 00d0 00000000 		.word	_ZN3DDA17lastDirChangeTimeE
 2704 00d4 00000000 		.word	.LANCHOR5
 2705              		.size	_ZN8Platform12SetDirectionEjb, .-_ZN8Platform12SetDirectionEjb
 2706              		.section	.text._ZN8Platform12EnableDriverEj,"ax",%progbits
 2707              		.align	1
 2708              		.p2align 2,,3
 2709              		.global	_ZN8Platform12EnableDriverEj
 2710              		.syntax unified
 2711              		.thumb
 2712              		.thumb_func
 2713              		.fpu fpv4-sp-d16
 2714              		.type	_ZN8Platform12EnableDriverEj, %function
 2715              	_ZN8Platform12EnableDriverEj:
 2716              		@ args = 0, pretend = 0, frame = 0
 2717              		@ frame_needed = 0, uses_anonymous_args = 0
 2718 0000 0B29     		cmp	r1, #11
 2719 0002 1DD8     		bhi	.L487
 2720 0004 70B5     		push	{r4, r5, r6, lr}
 2721 0006 4618     		adds	r6, r0, r1
 2722 0008 0546     		mov	r5, r0
 2723 000a 96F80C41 		ldrb	r4, [r6, #268]	@ zero_extendqisi2
 2724 000e 022C     		cmp	r4, #2
 2725 0010 15D0     		beq	.L480
 2726 0012 0223     		movs	r3, #2
 2727 0014 86F80C31 		strb	r3, [r6, #268]
 2728 0018 0C46     		mov	r4, r1
 2729 001a FFF7FEFF 		bl	_ZN8Platform18UpdateMotorCurrentEj.part.29
 2730 001e D5F8C033 		ldr	r3, [r5, #960]
 2731 0022 A342     		cmp	r3, r4
 2732 0024 0DD8     		bhi	.L490
 2733 0026 96F92411 		ldrsb	r1, [r6, #292]
 2734 002a 094B     		ldr	r3, .L491
 2735 002c 0029     		cmp	r1, #0
 2736 002e 185D     		ldrb	r0, [r3, r4]	@ zero_extendqisi2
ARM GAS  C:\Users\THOMAS~1.CAM\AppData\Local\Temp\cco4TuUn.s 			page 49


 2737 0030 D4BF     		ite	le
 2738 0032 0021     		movle	r1, #0
 2739 0034 0121     		movgt	r1, #1
 2740 0036 BDE87040 		pop	{r4, r5, r6, lr}
 2741 003a FFF7FEBF 		b	digitalWrite
 2742              	.L480:
 2743 003e 70BD     		pop	{r4, r5, r6, pc}
 2744              	.L487:
 2745 0040 7047     		bx	lr
 2746              	.L490:
 2747 0042 2046     		mov	r0, r4
 2748 0044 0121     		movs	r1, #1
 2749 0046 BDE87040 		pop	{r4, r5, r6, lr}
 2750 004a FFF7FEBF 		b	_ZN12SmartDrivers11EnableDriveEjb
 2751              	.L492:
 2752 004e 00BF     		.align	2
 2753              	.L491:
 2754 0050 00000000 		.word	.LANCHOR3
 2755              		.size	_ZN8Platform12EnableDriverEj, .-_ZN8Platform12EnableDriverEj
 2756              		.section	.text._ZN8Platform13DisableDriverEj,"ax",%progbits
 2757              		.align	1
 2758              		.p2align 2,,3
 2759              		.global	_ZN8Platform13DisableDriverEj
 2760              		.syntax unified
 2761              		.thumb
 2762              		.thumb_func
 2763              		.fpu fpv4-sp-d16
 2764              		.type	_ZN8Platform13DisableDriverEj, %function
 2765              	_ZN8Platform13DisableDriverEj:
 2766              		@ args = 0, pretend = 0, frame = 0
 2767              		@ frame_needed = 0, uses_anonymous_args = 0
 2768              		@ link register save eliminated.
 2769 0000 0B29     		cmp	r1, #11
 2770 0002 01D8     		bhi	.L493
 2771 0004 FFF7FEBF 		b	_ZN8Platform13DisableDriverEj.part.28
 2772              	.L493:
 2773 0008 7047     		bx	lr
 2774              		.size	_ZN8Platform13DisableDriverEj, .-_ZN8Platform13DisableDriverEj
 2775 000a 00BF     		.section	.text._ZN8Platform11EnableDriveEj,"ax",%progbits
 2776              		.align	1
 2777              		.p2align 2,,3
 2778              		.global	_ZN8Platform11EnableDriveEj
 2779              		.syntax unified
 2780              		.thumb
 2781              		.thumb_func
 2782              		.fpu fpv4-sp-d16
 2783              		.type	_ZN8Platform11EnableDriveEj, %function
 2784              	_ZN8Platform11EnableDriveEj:
 2785              		@ args = 0, pretend = 0, frame = 0
 2786              		@ frame_needed = 0, uses_anonymous_args = 0
 2787 0000 F8B5     		push	{r3, r4, r5, r6, r7, lr}
 2788 0002 134B     		ldr	r3, .L502
 2789 0004 9B69     		ldr	r3, [r3, #24]
 2790 0006 D3F89432 		ldr	r3, [r3, #660]
 2791 000a 8B42     		cmp	r3, r1
 2792 000c 0646     		mov	r6, r0
 2793 000e 14D9     		bls	.L496
ARM GAS  C:\Users\THOMAS~1.CAM\AppData\Local\Temp\cco4TuUn.s 			page 50


 2794 0010 00EBC107 		add	r7, r0, r1, lsl #3
 2795 0014 D7F8F432 		ldr	r3, [r7, #756]
 2796 0018 73B1     		cbz	r3, .L495
 2797 001a 01F15F04 		add	r4, r1, #95
 2798 001e 00EBC404 		add	r4, r0, r4, lsl #3
 2799 0022 0025     		movs	r5, #0
 2800              	.L500:
 2801 0024 14F8011B 		ldrb	r1, [r4], #1	@ zero_extendqisi2
 2802 0028 3046     		mov	r0, r6
 2803 002a FFF7FEFF 		bl	_ZN8Platform12EnableDriverEj
 2804 002e D7F8F432 		ldr	r3, [r7, #756]
 2805 0032 0135     		adds	r5, r5, #1
 2806 0034 AB42     		cmp	r3, r5
 2807 0036 F5D8     		bhi	.L500
 2808              	.L495:
 2809 0038 F8BD     		pop	{r3, r4, r5, r6, r7, pc}
 2810              	.L496:
 2811 003a 0B29     		cmp	r1, #11
 2812 003c FCD8     		bhi	.L495
 2813 003e C91A     		subs	r1, r1, r3
 2814 0040 0144     		add	r1, r1, r0
 2815 0042 BDE8F840 		pop	{r3, r4, r5, r6, r7, lr}
 2816 0046 91F83C13 		ldrb	r1, [r1, #828]	@ zero_extendqisi2
 2817 004a FFF7FEBF 		b	_ZN8Platform12EnableDriverEj
 2818              	.L503:
 2819 004e 00BF     		.align	2
 2820              	.L502:
 2821 0050 00000000 		.word	reprap
 2822              		.size	_ZN8Platform11EnableDriveEj, .-_ZN8Platform11EnableDriveEj
 2823              		.section	.text._ZN8Platform12DisableDriveEj,"ax",%progbits
 2824              		.align	1
 2825              		.p2align 2,,3
 2826              		.global	_ZN8Platform12DisableDriveEj
 2827              		.syntax unified
 2828              		.thumb
 2829              		.thumb_func
 2830              		.fpu fpv4-sp-d16
 2831              		.type	_ZN8Platform12DisableDriveEj, %function
 2832              	_ZN8Platform12DisableDriveEj:
 2833              		@ args = 0, pretend = 0, frame = 0
 2834              		@ frame_needed = 0, uses_anonymous_args = 0
 2835 0000 F8B5     		push	{r3, r4, r5, r6, r7, lr}
 2836 0002 164B     		ldr	r3, .L513
 2837 0004 9B69     		ldr	r3, [r3, #24]
 2838 0006 D3F89422 		ldr	r2, [r3, #660]
 2839 000a 8A42     		cmp	r2, r1
 2840 000c 0646     		mov	r6, r0
 2841 000e 12D9     		bls	.L505
 2842 0010 00EBC107 		add	r7, r0, r1, lsl #3
 2843 0014 D7F8F422 		ldr	r2, [r7, #756]
 2844 0018 62B1     		cbz	r2, .L504
 2845 001a 01F15F04 		add	r4, r1, #95
 2846 001e 00EBC404 		add	r4, r0, r4, lsl #3
 2847 0022 0025     		movs	r5, #0
 2848              	.L510:
 2849 0024 14F8011B 		ldrb	r1, [r4], #1	@ zero_extendqisi2
 2850 0028 0B29     		cmp	r1, #11
ARM GAS  C:\Users\THOMAS~1.CAM\AppData\Local\Temp\cco4TuUn.s 			page 51


 2851 002a 05F10105 		add	r5, r5, #1
 2852 002e 0ED9     		bls	.L512
 2853              	.L508:
 2854 0030 AA42     		cmp	r2, r5
 2855 0032 F7D8     		bhi	.L510
 2856              	.L504:
 2857 0034 F8BD     		pop	{r3, r4, r5, r6, r7, pc}
 2858              	.L505:
 2859 0036 0B29     		cmp	r1, #11
 2860 0038 FCD8     		bhi	.L504
 2861 003a 891A     		subs	r1, r1, r2
 2862 003c 0144     		add	r1, r1, r0
 2863 003e 91F83C13 		ldrb	r1, [r1, #828]	@ zero_extendqisi2
 2864 0042 0B29     		cmp	r1, #11
 2865 0044 F6D8     		bhi	.L504
 2866 0046 BDE8F840 		pop	{r3, r4, r5, r6, r7, lr}
 2867 004a FFF7FEBF 		b	_ZN8Platform13DisableDriverEj.part.28
 2868              	.L512:
 2869 004e 3046     		mov	r0, r6
 2870 0050 FFF7FEFF 		bl	_ZN8Platform13DisableDriverEj.part.28
 2871 0054 D7F8F422 		ldr	r2, [r7, #756]
 2872 0058 EAE7     		b	.L508
 2873              	.L514:
 2874 005a 00BF     		.align	2
 2875              	.L513:
 2876 005c 00000000 		.word	reprap
 2877              		.size	_ZN8Platform12DisableDriveEj, .-_ZN8Platform12DisableDriveEj
 2878              		.section	.text._ZN8Platform16DisableAllDrivesEv,"ax",%progbits
 2879              		.align	1
 2880              		.p2align 2,,3
 2881              		.global	_ZN8Platform16DisableAllDrivesEv
 2882              		.syntax unified
 2883              		.thumb
 2884              		.thumb_func
 2885              		.fpu fpv4-sp-d16
 2886              		.type	_ZN8Platform16DisableAllDrivesEv, %function
 2887              	_ZN8Platform16DisableAllDrivesEv:
 2888              		@ args = 0, pretend = 0, frame = 0
 2889              		@ frame_needed = 0, uses_anonymous_args = 0
 2890 0000 38B5     		push	{r3, r4, r5, lr}
 2891 0002 0546     		mov	r5, r0
 2892 0004 0024     		movs	r4, #0
 2893              	.L516:
 2894 0006 2146     		mov	r1, r4
 2895 0008 2846     		mov	r0, r5
 2896 000a FFF7FEFF 		bl	_ZN8Platform18UpdateMotorCurrentEj.part.29
 2897 000e 2146     		mov	r1, r4
 2898 0010 2846     		mov	r0, r5
 2899 0012 0134     		adds	r4, r4, #1
 2900 0014 FFF7FEFF 		bl	_ZN8Platform13DisableDriverEj.part.28
 2901 0018 0C2C     		cmp	r4, #12
 2902 001a F4D1     		bne	.L516
 2903 001c 38BD     		pop	{r3, r4, r5, pc}
 2904              		.size	_ZN8Platform16DisableAllDrivesEv, .-_ZN8Platform16DisableAllDrivesEv
 2905 001e 00BF     		.section	.text._ZN8Platform14SetDriversIdleEv,"ax",%progbits
 2906              		.align	1
 2907              		.p2align 2,,3
ARM GAS  C:\Users\THOMAS~1.CAM\AppData\Local\Temp\cco4TuUn.s 			page 52


 2908              		.global	_ZN8Platform14SetDriversIdleEv
 2909              		.syntax unified
 2910              		.thumb
 2911              		.thumb_func
 2912              		.fpu fpv4-sp-d16
 2913              		.type	_ZN8Platform14SetDriversIdleEv, %function
 2914              	_ZN8Platform14SetDriversIdleEv:
 2915              		@ args = 0, pretend = 0, frame = 0
 2916              		@ frame_needed = 0, uses_anonymous_args = 0
 2917 0000 70B5     		push	{r4, r5, r6, lr}
 2918 0002 0546     		mov	r5, r0
 2919 0004 0024     		movs	r4, #0
 2920 0006 0126     		movs	r6, #1
 2921 0008 02E0     		b	.L521
 2922              	.L520:
 2923 000a 0134     		adds	r4, r4, #1
 2924 000c 0C2C     		cmp	r4, #12
 2925 000e 0DD0     		beq	.L524
 2926              	.L521:
 2927 0010 2B19     		adds	r3, r5, r4
 2928 0012 93F80C21 		ldrb	r2, [r3, #268]	@ zero_extendqisi2
 2929 0016 022A     		cmp	r2, #2
 2930 0018 F7D1     		bne	.L520
 2931 001a 2146     		mov	r1, r4
 2932 001c 83F80C61 		strb	r6, [r3, #268]
 2933 0020 2846     		mov	r0, r5
 2934 0022 0134     		adds	r4, r4, #1
 2935 0024 FFF7FEFF 		bl	_ZN8Platform18UpdateMotorCurrentEj.part.29
 2936 0028 0C2C     		cmp	r4, #12
 2937 002a F1D1     		bne	.L521
 2938              	.L524:
 2939 002c 70BD     		pop	{r4, r5, r6, pc}
 2940              		.size	_ZN8Platform14SetDriversIdleEv, .-_ZN8Platform14SetDriversIdleEv
 2941 002e 00BF     		.section	.text._ZN8Platform16SetDriverCurrentEjfi,"ax",%progbits
 2942              		.align	1
 2943              		.p2align 2,,3
 2944              		.global	_ZN8Platform16SetDriverCurrentEjfi
 2945              		.syntax unified
 2946              		.thumb
 2947              		.thumb_func
 2948              		.fpu fpv4-sp-d16
 2949              		.type	_ZN8Platform16SetDriverCurrentEjfi, %function
 2950              	_ZN8Platform16SetDriverCurrentEjfi:
 2951              		@ args = 0, pretend = 0, frame = 0
 2952              		@ frame_needed = 0, uses_anonymous_args = 0
 2953              		@ link register save eliminated.
 2954 0000 0B29     		cmp	r1, #11
 2955 0002 01D8     		bhi	.L525
 2956 0004 FFF7FEBF 		b	_ZN8Platform16SetDriverCurrentEjfi.part.31
 2957              	.L525:
 2958 0008 7047     		bx	lr
 2959              		.size	_ZN8Platform16SetDriverCurrentEjfi, .-_ZN8Platform16SetDriverCurrentEjfi
 2960 000a 00BF     		.section	.text._ZN8Platform15SetMotorCurrentEjfi,"ax",%progbits
 2961              		.align	1
 2962              		.p2align 2,,3
 2963              		.global	_ZN8Platform15SetMotorCurrentEjfi
 2964              		.syntax unified
ARM GAS  C:\Users\THOMAS~1.CAM\AppData\Local\Temp\cco4TuUn.s 			page 53


 2965              		.thumb
 2966              		.thumb_func
 2967              		.fpu fpv4-sp-d16
 2968              		.type	_ZN8Platform15SetMotorCurrentEjfi, %function
 2969              	_ZN8Platform15SetMotorCurrentEjfi:
 2970              		@ args = 0, pretend = 0, frame = 0
 2971              		@ frame_needed = 0, uses_anonymous_args = 0
 2972 0000 2DE9F843 		push	{r3, r4, r5, r6, r7, r8, r9, lr}
 2973 0004 194B     		ldr	r3, .L536
 2974 0006 9B69     		ldr	r3, [r3, #24]
 2975 0008 D3F89432 		ldr	r3, [r3, #660]
 2976 000c 8B42     		cmp	r3, r1
 2977 000e 0646     		mov	r6, r0
 2978 0010 16D9     		bls	.L528
 2979 0012 00EBC109 		add	r9, r0, r1, lsl #3
 2980 0016 D9F8F432 		ldr	r3, [r9, #756]
 2981 001a 7BB1     		cbz	r3, .L527
 2982 001c 01F15F04 		add	r4, r1, #95
 2983 0020 10EE107A 		vmov	r7, s0
 2984 0024 9046     		mov	r8, r2
 2985 0026 00EBC404 		add	r4, r0, r4, lsl #3
 2986 002a 0025     		movs	r5, #0
 2987              	.L533:
 2988 002c 14F8011B 		ldrb	r1, [r4], #1	@ zero_extendqisi2
 2989 0030 0B29     		cmp	r1, #11
 2990 0032 05F10105 		add	r5, r5, #1
 2991 0036 0FD9     		bls	.L535
 2992              	.L531:
 2993 0038 AB42     		cmp	r3, r5
 2994 003a F7D8     		bhi	.L533
 2995              	.L527:
 2996 003c BDE8F883 		pop	{r3, r4, r5, r6, r7, r8, r9, pc}
 2997              	.L528:
 2998 0040 0B29     		cmp	r1, #11
 2999 0042 FBD8     		bhi	.L527
 3000 0044 C91A     		subs	r1, r1, r3
 3001 0046 0144     		add	r1, r1, r0
 3002 0048 91F83C13 		ldrb	r1, [r1, #828]	@ zero_extendqisi2
 3003 004c 0B29     		cmp	r1, #11
 3004 004e F5D8     		bhi	.L527
 3005 0050 BDE8F843 		pop	{r3, r4, r5, r6, r7, r8, r9, lr}
 3006 0054 FFF7FEBF 		b	_ZN8Platform16SetDriverCurrentEjfi.part.31
 3007              	.L535:
 3008 0058 4246     		mov	r2, r8
 3009 005a 00EE107A 		vmov	s0, r7
 3010 005e 3046     		mov	r0, r6
 3011 0060 FFF7FEFF 		bl	_ZN8Platform16SetDriverCurrentEjfi.part.31
 3012 0064 D9F8F432 		ldr	r3, [r9, #756]
 3013 0068 E6E7     		b	.L531
 3014              	.L537:
 3015 006a 00BF     		.align	2
 3016              	.L536:
 3017 006c 00000000 		.word	reprap
 3018              		.size	_ZN8Platform15SetMotorCurrentEjfi, .-_ZN8Platform15SetMotorCurrentEjfi
 3019              		.section	.text._ZN8Platform18UpdateMotorCurrentEj,"ax",%progbits
 3020              		.align	1
 3021              		.p2align 2,,3
ARM GAS  C:\Users\THOMAS~1.CAM\AppData\Local\Temp\cco4TuUn.s 			page 54


 3022              		.global	_ZN8Platform18UpdateMotorCurrentEj
 3023              		.syntax unified
 3024              		.thumb
 3025              		.thumb_func
 3026              		.fpu fpv4-sp-d16
 3027              		.type	_ZN8Platform18UpdateMotorCurrentEj, %function
 3028              	_ZN8Platform18UpdateMotorCurrentEj:
 3029              		@ args = 0, pretend = 0, frame = 0
 3030              		@ frame_needed = 0, uses_anonymous_args = 0
 3031              		@ link register save eliminated.
 3032 0000 0B29     		cmp	r1, #11
 3033 0002 01D8     		bhi	.L538
 3034 0004 FFF7FEBF 		b	_ZN8Platform18UpdateMotorCurrentEj.part.29
 3035              	.L538:
 3036 0008 7047     		bx	lr
 3037              		.size	_ZN8Platform18UpdateMotorCurrentEj, .-_ZN8Platform18UpdateMotorCurrentEj
 3038 000a 00BF     		.section	.text._ZNK8Platform15GetMotorCurrentEji,"ax",%progbits
 3039              		.align	1
 3040              		.p2align 2,,3
 3041              		.global	_ZNK8Platform15GetMotorCurrentEji
 3042              		.syntax unified
 3043              		.thumb
 3044              		.thumb_func
 3045              		.fpu fpv4-sp-d16
 3046              		.type	_ZNK8Platform15GetMotorCurrentEji, %function
 3047              	_ZNK8Platform15GetMotorCurrentEji:
 3048              		@ args = 0, pretend = 0, frame = 0
 3049              		@ frame_needed = 0, uses_anonymous_args = 0
 3050              		@ link register save eliminated.
 3051 0000 0B29     		cmp	r1, #11
 3052 0002 17D8     		bhi	.L551
 3053 0004 1B4B     		ldr	r3, .L555
 3054 0006 9B69     		ldr	r3, [r3, #24]
 3055 0008 D3F89432 		ldr	r3, [r3, #660]
 3056 000c 9942     		cmp	r1, r3
 3057 000e 14D3     		bcc	.L552
 3058 0010 C91A     		subs	r1, r1, r3
 3059 0012 0144     		add	r1, r1, r0
 3060 0014 91F83C33 		ldrb	r3, [r1, #828]	@ zero_extendqisi2
 3061              	.L543:
 3062 0018 0B2B     		cmp	r3, #11
 3063 001a 0BD8     		bhi	.L551
 3064 001c 40F29131 		movw	r1, #913
 3065 0020 8A42     		cmp	r2, r1
 3066 0022 1BD0     		beq	.L544
 3067 0024 40F29531 		movw	r1, #917
 3068 0028 8A42     		cmp	r2, r1
 3069 002a 0BD0     		beq	.L545
 3070 002c 40F28A31 		movw	r1, #906
 3071 0030 8A42     		cmp	r2, r1
 3072 0032 0ED0     		beq	.L553
 3073              	.L551:
 3074 0034 9FED100A 		vldr.32	s0, .L555+4
 3075 0038 7047     		bx	lr
 3076              	.L552:
 3077 003a 00EBC101 		add	r1, r0, r1, lsl #3
 3078 003e 91F8F832 		ldrb	r3, [r1, #760]	@ zero_extendqisi2
ARM GAS  C:\Users\THOMAS~1.CAM\AppData\Local\Temp\cco4TuUn.s 			page 55


 3079 0042 E9E7     		b	.L543
 3080              	.L545:
 3081 0044 D0F8C023 		ldr	r2, [r0, #960]
 3082 0048 9342     		cmp	r3, r2
 3083 004a 10D3     		bcc	.L554
 3084 004c 9FED0B0A 		vldr.32	s0, .L555+8
 3085 0050 7047     		bx	lr
 3086              	.L553:
 3087 0052 00EB8300 		add	r0, r0, r3, lsl #2
 3088 0056 90EDA50A 		vldr.32	s0, [r0, #660]
 3089 005a 7047     		bx	lr
 3090              	.L544:
 3091 005c 00EB8300 		add	r0, r0, r3, lsl #2
 3092 0060 90EDB10A 		vldr.32	s0, [r0, #708]
 3093 0064 DFED057A 		vldr.32	s15, .L555+8
 3094 0068 20EE270A 		vmul.f32	s0, s0, s15
 3095 006c 7047     		bx	lr
 3096              	.L554:
 3097 006e 1846     		mov	r0, r3
 3098 0070 FFF7FEBF 		b	_ZN12SmartDrivers27GetStandstillCurrentPercentEj
 3099              	.L556:
 3100              		.align	2
 3101              	.L555:
 3102 0074 00000000 		.word	reprap
 3103 0078 00000000 		.word	0
 3104 007c 0000C842 		.word	1120403456
 3105              		.size	_ZNK8Platform15GetMotorCurrentEji, .-_ZNK8Platform15GetMotorCurrentEji
 3106              		.section	.text._ZN8Platform20SetIdleCurrentFactorEf,"ax",%progbits
 3107              		.align	1
 3108              		.p2align 2,,3
 3109              		.global	_ZN8Platform20SetIdleCurrentFactorEf
 3110              		.syntax unified
 3111              		.thumb
 3112              		.thumb_func
 3113              		.fpu fpv4-sp-d16
 3114              		.type	_ZN8Platform20SetIdleCurrentFactorEf, %function
 3115              	_ZN8Platform20SetIdleCurrentFactorEf:
 3116              		@ args = 0, pretend = 0, frame = 0
 3117              		@ frame_needed = 0, uses_anonymous_args = 0
 3118 0000 38B5     		push	{r3, r4, r5, lr}
 3119 0002 0546     		mov	r5, r0
 3120 0004 80EDEF0A 		vstr.32	s0, [r0, #956]
 3121 0008 0024     		movs	r4, #0
 3122 000a 02E0     		b	.L559
 3123              	.L558:
 3124 000c 0134     		adds	r4, r4, #1
 3125 000e 0C2C     		cmp	r4, #12
 3126 0010 0BD0     		beq	.L562
 3127              	.L559:
 3128 0012 2B19     		adds	r3, r5, r4
 3129 0014 93F80C31 		ldrb	r3, [r3, #268]	@ zero_extendqisi2
 3130 0018 012B     		cmp	r3, #1
 3131 001a F7D1     		bne	.L558
 3132 001c 2146     		mov	r1, r4
 3133 001e 2846     		mov	r0, r5
 3134 0020 0134     		adds	r4, r4, #1
 3135 0022 FFF7FEFF 		bl	_ZN8Platform18UpdateMotorCurrentEj.part.29
ARM GAS  C:\Users\THOMAS~1.CAM\AppData\Local\Temp\cco4TuUn.s 			page 56


 3136 0026 0C2C     		cmp	r4, #12
 3137 0028 F3D1     		bne	.L559
 3138              	.L562:
 3139 002a 38BD     		pop	{r3, r4, r5, pc}
 3140              		.size	_ZN8Platform20SetIdleCurrentFactorEf, .-_ZN8Platform20SetIdleCurrentFactorEf
 3141              		.section	.text._ZN8Platform22SetDriverMicrosteppingEjji,"ax",%progbits
 3142              		.align	1
 3143              		.p2align 2,,3
 3144              		.global	_ZN8Platform22SetDriverMicrosteppingEjji
 3145              		.syntax unified
 3146              		.thumb
 3147              		.thumb_func
 3148              		.fpu fpv4-sp-d16
 3149              		.type	_ZN8Platform22SetDriverMicrosteppingEjji, %function
 3150              	_ZN8Platform22SetDriverMicrosteppingEjji:
 3151              		@ args = 0, pretend = 0, frame = 0
 3152              		@ frame_needed = 0, uses_anonymous_args = 0
 3153              		@ link register save eliminated.
 3154 0000 0B29     		cmp	r1, #11
 3155 0002 10B4     		push	{r4}
 3156 0004 0C46     		mov	r4, r1
 3157 0006 0CD8     		bhi	.L566
 3158 0008 1146     		mov	r1, r2
 3159 000a D0F8C023 		ldr	r2, [r0, #960]
 3160 000e 9442     		cmp	r4, r2
 3161 0010 0BD3     		bcc	.L568
 3162 0012 A1F11000 		sub	r0, r1, #16
 3163 0016 B0FA80F0 		clz	r0, r0
 3164 001a 4009     		lsrs	r0, r0, #5
 3165 001c 5DF8044B 		ldr	r4, [sp], #4
 3166 0020 7047     		bx	lr
 3167              	.L566:
 3168 0022 0020     		movs	r0, #0
 3169 0024 5DF8044B 		ldr	r4, [sp], #4
 3170 0028 7047     		bx	lr
 3171              	.L568:
 3172 002a 2046     		mov	r0, r4
 3173 002c 1A46     		mov	r2, r3
 3174 002e 5DF8044B 		ldr	r4, [sp], #4
 3175 0032 FFF7FEBF 		b	_ZN12SmartDrivers16SetMicrosteppingEjji
 3176              		.size	_ZN8Platform22SetDriverMicrosteppingEjji, .-_ZN8Platform22SetDriverMicrosteppingEjji
 3177 0036 00BF     		.section	.text._ZN8Platform16SetMicrosteppingEjii,"ax",%progbits
 3178              		.align	1
 3179              		.p2align 2,,3
 3180              		.global	_ZN8Platform16SetMicrosteppingEjii
 3181              		.syntax unified
 3182              		.thumb
 3183              		.thumb_func
 3184              		.fpu fpv4-sp-d16
 3185              		.type	_ZN8Platform16SetMicrosteppingEjii, %function
 3186              	_ZN8Platform16SetMicrosteppingEjii:
 3187              		@ args = 0, pretend = 0, frame = 0
 3188              		@ frame_needed = 0, uses_anonymous_args = 0
 3189 0000 2DE9F047 		push	{r4, r5, r6, r7, r8, r9, r10, lr}
 3190 0004 2E4C     		ldr	r4, .L589
 3191 0006 A469     		ldr	r4, [r4, #24]
 3192 0008 D4F89442 		ldr	r4, [r4, #660]
ARM GAS  C:\Users\THOMAS~1.CAM\AppData\Local\Temp\cco4TuUn.s 			page 57


 3193 000c 8C42     		cmp	r4, r1
 3194 000e 1646     		mov	r6, r2
 3195 0010 1DD9     		bls	.L570
 3196 0012 00EBC108 		add	r8, r0, r1, lsl #3
 3197 0016 D8F8F422 		ldr	r2, [r8, #756]
 3198 001a 8AB3     		cbz	r2, .L579
 3199 001c 01F15F04 		add	r4, r1, #95
 3200 0020 E400     		lsls	r4, r4, #3
 3201 0022 C4F1000A 		rsb	r10, r4, #0
 3202 0026 1F46     		mov	r7, r3
 3203 0028 0546     		mov	r5, r0
 3204 002a AAEB000A 		sub	r10, r10, r0
 3205 002e 0444     		add	r4, r4, r0
 3206 0030 4FF00109 		mov	r9, #1
 3207              	.L577:
 3208 0034 14F8010B 		ldrb	r0, [r4], #1	@ zero_extendqisi2
 3209 0038 0B28     		cmp	r0, #11
 3210 003a 15D9     		bls	.L572
 3211              	.L576:
 3212 003c 4FF00009 		mov	r9, #0
 3213              	.L573:
 3214 0040 0AEB0403 		add	r3, r10, r4
 3215 0044 9A42     		cmp	r2, r3
 3216 0046 F5D8     		bhi	.L577
 3217              	.L571:
 3218 0048 4846     		mov	r0, r9
 3219 004a BDE8F087 		pop	{r4, r5, r6, r7, r8, r9, r10, pc}
 3220              	.L570:
 3221 004e 0B29     		cmp	r1, #11
 3222 0050 05D8     		bhi	.L581
 3223 0052 0C1B     		subs	r4, r1, r4
 3224 0054 0444     		add	r4, r4, r0
 3225 0056 94F83C43 		ldrb	r4, [r4, #828]	@ zero_extendqisi2
 3226 005a 0B2C     		cmp	r4, #11
 3227 005c 15D9     		bls	.L586
 3228              	.L581:
 3229 005e 4FF00009 		mov	r9, #0
 3230 0062 4846     		mov	r0, r9
 3231 0064 BDE8F087 		pop	{r4, r5, r6, r7, r8, r9, r10, pc}
 3232              	.L572:
 3233 0068 D5F8C033 		ldr	r3, [r5, #960]
 3234 006c 9842     		cmp	r0, r3
 3235 006e 17D3     		bcc	.L587
 3236 0070 A6F11000 		sub	r0, r6, #16
 3237 0074 B0FA80F0 		clz	r0, r0
 3238 0078 4009     		lsrs	r0, r0, #5
 3239 007a 0028     		cmp	r0, #0
 3240 007c DED0     		beq	.L576
 3241 007e DFE7     		b	.L573
 3242              	.L579:
 3243 0080 4FF00109 		mov	r9, #1
 3244 0084 4846     		mov	r0, r9
 3245 0086 BDE8F087 		pop	{r4, r5, r6, r7, r8, r9, r10, pc}
 3246              	.L586:
 3247 008a D0F8C023 		ldr	r2, [r0, #960]
 3248 008e 9442     		cmp	r4, r2
 3249 0090 0FD3     		bcc	.L588
ARM GAS  C:\Users\THOMAS~1.CAM\AppData\Local\Temp\cco4TuUn.s 			page 58


 3250 0092 A6F11009 		sub	r9, r6, #16
 3251 0096 B9FA89F9 		clz	r9, r9
 3252 009a 4FEA5919 		lsr	r9, r9, #5
 3253 009e D3E7     		b	.L571
 3254              	.L587:
 3255 00a0 3A46     		mov	r2, r7
 3256 00a2 3146     		mov	r1, r6
 3257 00a4 FFF7FEFF 		bl	_ZN12SmartDrivers16SetMicrosteppingEjji
 3258 00a8 D8F8F422 		ldr	r2, [r8, #756]
 3259 00ac 0028     		cmp	r0, #0
 3260 00ae C5D0     		beq	.L576
 3261 00b0 C6E7     		b	.L573
 3262              	.L588:
 3263 00b2 3146     		mov	r1, r6
 3264 00b4 2046     		mov	r0, r4
 3265 00b6 1A46     		mov	r2, r3
 3266 00b8 BDE8F047 		pop	{r4, r5, r6, r7, r8, r9, r10, lr}
 3267 00bc FFF7FEBF 		b	_ZN12SmartDrivers16SetMicrosteppingEjji
 3268              	.L590:
 3269              		.align	2
 3270              	.L589:
 3271 00c0 00000000 		.word	reprap
 3272              		.size	_ZN8Platform16SetMicrosteppingEjii, .-_ZN8Platform16SetMicrosteppingEjii
 3273              		.section	.text._ZNK8Platform22GetDriverMicrosteppingEjiRb,"ax",%progbits
 3274              		.align	1
 3275              		.p2align 2,,3
 3276              		.global	_ZNK8Platform22GetDriverMicrosteppingEjiRb
 3277              		.syntax unified
 3278              		.thumb
 3279              		.thumb_func
 3280              		.fpu fpv4-sp-d16
 3281              		.type	_ZNK8Platform22GetDriverMicrosteppingEjiRb, %function
 3282              	_ZNK8Platform22GetDriverMicrosteppingEjiRb:
 3283              		@ args = 0, pretend = 0, frame = 0
 3284              		@ frame_needed = 0, uses_anonymous_args = 0
 3285              		@ link register save eliminated.
 3286 0000 10B4     		push	{r4}
 3287 0002 D0F8C043 		ldr	r4, [r0, #960]
 3288 0006 8C42     		cmp	r4, r1
 3289 0008 0846     		mov	r0, r1
 3290 000a 05D9     		bls	.L592
 3291 000c 1146     		mov	r1, r2
 3292 000e 5DF8044B 		ldr	r4, [sp], #4
 3293 0012 1A46     		mov	r2, r3
 3294 0014 FFF7FEBF 		b	_ZN12SmartDrivers16GetMicrosteppingEjiRb
 3295              	.L592:
 3296 0018 0022     		movs	r2, #0
 3297 001a 1020     		movs	r0, #16
 3298 001c 1A70     		strb	r2, [r3]
 3299 001e 5DF8044B 		ldr	r4, [sp], #4
 3300 0022 7047     		bx	lr
 3301              		.size	_ZNK8Platform22GetDriverMicrosteppingEjiRb, .-_ZNK8Platform22GetDriverMicrosteppingEjiRb
 3302              		.section	.text._ZNK8Platform16GetMicrosteppingEjiRb,"ax",%progbits
 3303              		.align	1
 3304              		.p2align 2,,3
 3305              		.global	_ZNK8Platform16GetMicrosteppingEjiRb
 3306              		.syntax unified
ARM GAS  C:\Users\THOMAS~1.CAM\AppData\Local\Temp\cco4TuUn.s 			page 59


 3307              		.thumb
 3308              		.thumb_func
 3309              		.fpu fpv4-sp-d16
 3310              		.type	_ZNK8Platform16GetMicrosteppingEjiRb, %function
 3311              	_ZNK8Platform16GetMicrosteppingEjiRb:
 3312              		@ args = 0, pretend = 0, frame = 0
 3313              		@ frame_needed = 0, uses_anonymous_args = 0
 3314              		@ link register save eliminated.
 3315 0000 30B4     		push	{r4, r5}
 3316 0002 114C     		ldr	r4, .L601
 3317 0004 A469     		ldr	r4, [r4, #24]
 3318 0006 D4F89442 		ldr	r4, [r4, #660]
 3319 000a 8C42     		cmp	r4, r1
 3320 000c 1546     		mov	r5, r2
 3321 000e 0CD9     		bls	.L595
 3322 0010 00EBC104 		add	r4, r0, r1, lsl #3
 3323 0014 D0F8C023 		ldr	r2, [r0, #960]
 3324 0018 94F8F802 		ldrb	r0, [r4, #760]	@ zero_extendqisi2
 3325 001c 9042     		cmp	r0, r2
 3326 001e 0ED2     		bcs	.L596
 3327              	.L600:
 3328 0020 2946     		mov	r1, r5
 3329 0022 1A46     		mov	r2, r3
 3330 0024 30BC     		pop	{r4, r5}
 3331 0026 FFF7FEBF 		b	_ZN12SmartDrivers16GetMicrosteppingEjiRb
 3332              	.L595:
 3333 002a 0B29     		cmp	r1, #11
 3334 002c 07D8     		bhi	.L596
 3335 002e 0C1B     		subs	r4, r1, r4
 3336 0030 0444     		add	r4, r4, r0
 3337 0032 D0F8C023 		ldr	r2, [r0, #960]
 3338 0036 94F83C03 		ldrb	r0, [r4, #828]	@ zero_extendqisi2
 3339 003a 9042     		cmp	r0, r2
 3340 003c F0D3     		bcc	.L600
 3341              	.L596:
 3342 003e 0022     		movs	r2, #0
 3343 0040 1020     		movs	r0, #16
 3344 0042 1A70     		strb	r2, [r3]
 3345 0044 30BC     		pop	{r4, r5}
 3346 0046 7047     		bx	lr
 3347              	.L602:
 3348              		.align	2
 3349              	.L601:
 3350 0048 00000000 		.word	reprap
 3351              		.size	_ZNK8Platform16GetMicrosteppingEjiRb, .-_ZNK8Platform16GetMicrosteppingEjiRb
 3352              		.section	.text._ZN8Platform14SetEnableValueEja,"ax",%progbits
 3353              		.align	1
 3354              		.p2align 2,,3
 3355              		.global	_ZN8Platform14SetEnableValueEja
 3356              		.syntax unified
 3357              		.thumb
 3358              		.thumb_func
 3359              		.fpu fpv4-sp-d16
 3360              		.type	_ZN8Platform14SetEnableValueEja, %function
 3361              	_ZN8Platform14SetEnableValueEja:
 3362              		@ args = 0, pretend = 0, frame = 0
 3363              		@ frame_needed = 0, uses_anonymous_args = 0
ARM GAS  C:\Users\THOMAS~1.CAM\AppData\Local\Temp\cco4TuUn.s 			page 60


 3364 0000 4318     		adds	r3, r0, r1
 3365 0002 0B29     		cmp	r1, #11
 3366 0004 70B5     		push	{r4, r5, r6, lr}
 3367 0006 0446     		mov	r4, r0
 3368 0008 0D46     		mov	r5, r1
 3369 000a 1646     		mov	r6, r2
 3370 000c 83F82421 		strb	r2, [r3, #292]
 3371 0010 17D9     		bls	.L607
 3372              	.L604:
 3373 0012 0136     		adds	r6, r6, #1
 3374 0014 00D0     		beq	.L608
 3375 0016 70BD     		pop	{r4, r5, r6, pc}
 3376              	.L608:
 3377 0018 04F57270 		add	r0, r4, #968
 3378 001c 0DC8     		ldm	r0, {r0, r2, r3}
 3379 001e 0121     		movs	r1, #1
 3380 0020 A940     		lsls	r1, r1, r5
 3381 0022 D4F8C453 		ldr	r5, [r4, #964]
 3382 0026 C943     		mvns	r1, r1
 3383 0028 0D40     		ands	r5, r5, r1
 3384 002a 0840     		ands	r0, r0, r1
 3385 002c 0A40     		ands	r2, r2, r1
 3386 002e 1940     		ands	r1, r1, r3
 3387 0030 C4F8C453 		str	r5, [r4, #964]
 3388 0034 C4F8C803 		str	r0, [r4, #968]
 3389 0038 C4F8CC23 		str	r2, [r4, #972]
 3390 003c C4F8D013 		str	r1, [r4, #976]
 3391 0040 70BD     		pop	{r4, r5, r6, pc}
 3392              	.L607:
 3393 0042 FFF7FEFF 		bl	_ZN8Platform13DisableDriverEj.part.28
 3394 0046 E4E7     		b	.L604
 3395              		.size	_ZN8Platform14SetEnableValueEja, .-_ZN8Platform14SetEnableValueEja
 3396              		.section	.text._ZN8Platform20SetAxisDriversConfigEjRK17AxisDriversConfig,"ax",%progbits
 3397              		.align	1
 3398              		.p2align 2,,3
 3399              		.global	_ZN8Platform20SetAxisDriversConfigEjRK17AxisDriversConfig
 3400              		.syntax unified
 3401              		.thumb
 3402              		.thumb_func
 3403              		.fpu fpv4-sp-d16
 3404              		.type	_ZN8Platform20SetAxisDriversConfigEjRK17AxisDriversConfig, %function
 3405              	_ZN8Platform20SetAxisDriversConfigEjRK17AxisDriversConfig:
 3406              		@ args = 0, pretend = 0, frame = 0
 3407              		@ frame_needed = 0, uses_anonymous_args = 0
 3408 0000 2DE9F84F 		push	{r3, r4, r5, r6, r7, r8, r9, r10, fp, lr}
 3409 0004 8146     		mov	r9, r0
 3410 0006 0D46     		mov	r5, r1
 3411 0008 D2E90001 		ldrd	r0, r1, [r2]
 3412 000c 09EBC503 		add	r3, r9, r5, lsl #3
 3413 0010 03F53D73 		add	r3, r3, #756
 3414 0014 83E80300 		stm	r3, {r0, r1}
 3415 0018 1368     		ldr	r3, [r2]
 3416 001a 03B3     		cbz	r3, .L612
 3417 001c 6FF00306 		mvn	r6, #3
 3418 0020 DFF84C80 		ldr	r8, .L615+4
 3419 0024 114F     		ldr	r7, .L615
 3420 0026 9346     		mov	fp, r2
ARM GAS  C:\Users\THOMAS~1.CAM\AppData\Local\Temp\cco4TuUn.s 			page 61


 3421 0028 B61A     		subs	r6, r6, r2
 3422 002a 141D     		adds	r4, r2, #4
 3423 002c 4FF0000A 		mov	r10, #0
 3424              	.L611:
 3425 0030 14F8010B 		ldrb	r0, [r4], #1	@ zero_extendqisi2
 3426 0034 3B5C     		ldrb	r3, [r7, r0]	@ zero_extendqisi2
 3427 0036 C3EBC303 		rsb	r3, r3, r3, lsl #3
 3428 003a 08EB8303 		add	r3, r8, r3, lsl #2
 3429 003e 2946     		mov	r1, r5
 3430 0040 5B68     		ldr	r3, [r3, #4]
 3431 0042 4AEA030A 		orr	r10, r10, r3
 3432 0046 FFF7FEFF 		bl	_ZN12SmartDrivers13SetAxisNumberEjm
 3433 004a DBF80020 		ldr	r2, [fp]
 3434 004e 3319     		adds	r3, r6, r4
 3435 0050 9A42     		cmp	r2, r3
 3436 0052 EDD8     		bhi	.L611
 3437 0054 D235     		adds	r5, r5, #210
 3438 0056 49F825A0 		str	r10, [r9, r5, lsl #2]
 3439 005a BDE8F88F 		pop	{r3, r4, r5, r6, r7, r8, r9, r10, fp, pc}
 3440              	.L612:
 3441 005e D235     		adds	r5, r5, #210
 3442 0060 9A46     		mov	r10, r3
 3443 0062 49F825A0 		str	r10, [r9, r5, lsl #2]
 3444 0066 BDE8F88F 		pop	{r3, r4, r5, r6, r7, r8, r9, r10, fp, pc}
 3445              	.L616:
 3446 006a 00BF     		.align	2
 3447              	.L615:
 3448 006c 00000000 		.word	.LANCHOR4
 3449 0070 00000000 		.word	g_APinDescription
 3450              		.size	_ZN8Platform20SetAxisDriversConfigEjRK17AxisDriversConfig, .-_ZN8Platform20SetAxisDriversCon
 3451              		.section	.text._ZN8Platform17SetExtruderDriverEjh,"ax",%progbits
 3452              		.align	1
 3453              		.p2align 2,,3
 3454              		.global	_ZN8Platform17SetExtruderDriverEjh
 3455              		.syntax unified
 3456              		.thumb
 3457              		.thumb_func
 3458              		.fpu fpv4-sp-d16
 3459              		.type	_ZN8Platform17SetExtruderDriverEjh, %function
 3460              	_ZN8Platform17SetExtruderDriverEjh:
 3461              		@ args = 0, pretend = 0, frame = 0
 3462              		@ frame_needed = 0, uses_anonymous_args = 0
 3463 0000 F8B5     		push	{r3, r4, r5, r6, r7, lr}
 3464 0002 0F4F     		ldr	r7, .L619
 3465 0004 0C46     		mov	r4, r1
 3466 0006 4118     		adds	r1, r0, r1
 3467 0008 BB69     		ldr	r3, [r7, #24]
 3468 000a 81F83C23 		strb	r2, [r1, #828]
 3469 000e D3F89412 		ldr	r1, [r3, #660]
 3470 0012 0646     		mov	r6, r0
 3471 0014 2144     		add	r1, r1, r4
 3472 0016 1046     		mov	r0, r2
 3473 0018 1546     		mov	r5, r2
 3474 001a FFF7FEFF 		bl	_ZN12SmartDrivers13SetAxisNumberEjm
 3475 001e 094B     		ldr	r3, .L619+4
 3476 0020 BA69     		ldr	r2, [r7, #24]
 3477 0022 5B5D     		ldrb	r3, [r3, r5]	@ zero_extendqisi2
ARM GAS  C:\Users\THOMAS~1.CAM\AppData\Local\Temp\cco4TuUn.s 			page 62


 3478 0024 D2F89412 		ldr	r1, [r2, #660]
 3479 0028 074A     		ldr	r2, .L619+8
 3480 002a C3EBC303 		rsb	r3, r3, r3, lsl #3
 3481 002e 0C44     		add	r4, r4, r1
 3482 0030 02EB8303 		add	r3, r2, r3, lsl #2
 3483 0034 D234     		adds	r4, r4, #210
 3484 0036 5B68     		ldr	r3, [r3, #4]
 3485 0038 46F82430 		str	r3, [r6, r4, lsl #2]
 3486 003c F8BD     		pop	{r3, r4, r5, r6, r7, pc}
 3487              	.L620:
 3488 003e 00BF     		.align	2
 3489              	.L619:
 3490 0040 00000000 		.word	reprap
 3491 0044 00000000 		.word	.LANCHOR4
 3492 0048 00000000 		.word	g_APinDescription
 3493              		.size	_ZN8Platform17SetExtruderDriverEjh, .-_ZN8Platform17SetExtruderDriverEjh
 3494              		.section	.text._ZN8Platform19SetDriverStepTimingEjPKf,"ax",%progbits
 3495              		.align	1
 3496              		.p2align 2,,3
 3497              		.global	_ZN8Platform19SetDriverStepTimingEjPKf
 3498              		.syntax unified
 3499              		.thumb
 3500              		.thumb_func
 3501              		.fpu fpv4-sp-d16
 3502              		.type	_ZN8Platform19SetDriverStepTimingEjPKf, %function
 3503              	_ZN8Platform19SetDriverStepTimingEjPKf:
 3504              		@ args = 0, pretend = 0, frame = 0
 3505              		@ frame_needed = 0, uses_anonymous_args = 0
 3506              		@ link register save eliminated.
 3507 0000 254B     		ldr	r3, .L632
 3508 0002 F0B4     		push	{r4, r5, r6, r7}
 3509 0004 5D5C     		ldrb	r5, [r3, r1]	@ zero_extendqisi2
 3510 0006 254F     		ldr	r7, .L632+4
 3511 0008 D0F8B813 		ldr	r1, [r0, #952]
 3512 000c 4FEAC50C 		lsl	ip, r5, #3
 3513 0010 ACEB0503 		sub	r3, ip, r5
 3514 0014 07EB8303 		add	r3, r7, r3, lsl #2
 3515 0018 5C68     		ldr	r4, [r3, #4]
 3516 001a 21EA0404 		bic	r4, r1, r4
 3517 001e C0F8B843 		str	r4, [r0, #952]
 3518 0022 00F56A73 		add	r3, r0, #936
 3519 0026 7CB3     		cbz	r4, .L622
 3520 0028 00F56E76 		add	r6, r0, #952
 3521              	.L624:
 3522 002c ACEB0505 		sub	r5, ip, r5
 3523 0030 9FED1B7A 		vldr.32	s14, .L632+8
 3524 0034 DFED1B5A 		vldr.32	s11, .L632+12
 3525 0038 9FED1B6A 		vldr.32	s12, .L632+16
 3526 003c DFED1B6A 		vldr.32	s13, .L632+20
 3527 0040 07EB8505 		add	r5, r7, r5, lsl #2
 3528              	.L623:
 3529 0044 F2EC017A 		vldmia.32	r2!, {s15}
 3530 0048 F4EEC77A 		vcmpe.f32	s15, s14
 3531 004c F1EE10FA 		vmrs	APSR_nzcv, FPSCR
 3532 0050 15DD     		ble	.L627
 3533 0052 6C68     		ldr	r4, [r5, #4]
 3534 0054 D0F8B813 		ldr	r1, [r0, #952]
ARM GAS  C:\Users\THOMAS~1.CAM\AppData\Local\Temp\cco4TuUn.s 			page 63


 3535 0058 2143     		orrs	r1, r1, r4
 3536 005a C0F8B813 		str	r1, [r0, #952]
 3537 005e 52ED017A 		vldr.32	s15, [r2, #-4]
 3538 0062 1C68     		ldr	r4, [r3]
 3539 0064 67EEA57A 		vmul.f32	s15, s15, s11
 3540 0068 B0EE665A 		vmov.f32	s10, s13
 3541 006c A7EE865A 		vfma.f32	s10, s15, s12
 3542 0070 FCEEC57A 		vcvt.u32.f32	s15, s10
 3543 0074 17EE901A 		vmov	r1, s15	@ int
 3544 0078 8C42     		cmp	r4, r1
 3545 007a 38BF     		it	cc
 3546 007c 1960     		strcc	r1, [r3]
 3547              	.L627:
 3548 007e 0433     		adds	r3, r3, #4
 3549 0080 B342     		cmp	r3, r6
 3550 0082 DFD1     		bne	.L623
 3551 0084 F0BC     		pop	{r4, r5, r6, r7}
 3552 0086 7047     		bx	lr
 3553              	.L622:
 3554 0088 1946     		mov	r1, r3
 3555 008a 00F56E76 		add	r6, r0, #952
 3556              	.L625:
 3557 008e 41F8044B 		str	r4, [r1], #4
 3558 0092 8E42     		cmp	r6, r1
 3559 0094 FBD1     		bne	.L625
 3560 0096 C9E7     		b	.L624
 3561              	.L633:
 3562              		.align	2
 3563              	.L632:
 3564 0098 00000000 		.word	.LANCHOR4
 3565 009c 00000000 		.word	g_APinDescription
 3566 00a0 CDCC4C3E 		.word	1045220557
 3567 00a4 C0E16449 		.word	1231348160
 3568 00a8 BD378635 		.word	897988541
 3569 00ac A4707D3F 		.word	1065185444
 3570              		.size	_ZN8Platform19SetDriverStepTimingEjPKf, .-_ZN8Platform19SetDriverStepTimingEjPKf
 3571              		.section	.text._ZNK8Platform19GetDriverStepTimingEjPf,"ax",%progbits
 3572              		.align	1
 3573              		.p2align 2,,3
 3574              		.global	_ZNK8Platform19GetDriverStepTimingEjPf
 3575              		.syntax unified
 3576              		.thumb
 3577              		.thumb_func
 3578              		.fpu fpv4-sp-d16
 3579              		.type	_ZNK8Platform19GetDriverStepTimingEjPf, %function
 3580              	_ZNK8Platform19GetDriverStepTimingEjPf:
 3581              		@ args = 0, pretend = 0, frame = 0
 3582              		@ frame_needed = 0, uses_anonymous_args = 0
 3583              		@ link register save eliminated.
 3584 0000 144B     		ldr	r3, .L640
 3585 0002 DFED155A 		vldr.32	s11, .L640+4
 3586 0006 5B5C     		ldrb	r3, [r3, r1]	@ zero_extendqisi2
 3587 0008 9FED146A 		vldr.32	s12, .L640+8
 3588 000c DFED146A 		vldr.32	s13, .L640+12
 3589 0010 10B4     		push	{r4}
 3590 0012 144C     		ldr	r4, .L640+16
 3591 0014 D0F8B813 		ldr	r1, [r0, #952]
ARM GAS  C:\Users\THOMAS~1.CAM\AppData\Local\Temp\cco4TuUn.s 			page 64


 3592 0018 C3EBC303 		rsb	r3, r3, r3, lsl #3
 3593 001c 04EB8303 		add	r3, r4, r3, lsl #2
 3594 0020 00F56A70 		add	r0, r0, #936
 3595 0024 5B68     		ldr	r3, [r3, #4]
 3596 0026 0B40     		ands	r3, r3, r1
 3597 0028 02F11001 		add	r1, r2, #16
 3598              	.L636:
 3599 002c 7BB1     		cbz	r3, .L637
 3600 002e D0ED007A 		vldr.32	s15, [r0]	@ int
 3601 0032 F8EE677A 		vcvt.f32.u32	s15, s15
 3602 0036 67EE867A 		vmul.f32	s15, s15, s12
 3603 003a 87EEA67A 		vdiv.f32	s14, s15, s13
 3604              	.L635:
 3605 003e 0430     		adds	r0, r0, #4
 3606 0040 A2EC017A 		vstmia.32	r2!, {s14}
 3607 0044 8A42     		cmp	r2, r1
 3608 0046 F1D1     		bne	.L636
 3609 0048 5DF8044B 		ldr	r4, [sp], #4
 3610 004c 7047     		bx	lr
 3611              	.L637:
 3612 004e B0EE657A 		vmov.f32	s14, s11
 3613 0052 F4E7     		b	.L635
 3614              	.L641:
 3615              		.align	2
 3616              	.L640:
 3617 0054 00000000 		.word	.LANCHOR4
 3618 0058 00000000 		.word	0
 3619 005c 00247449 		.word	1232348160
 3620 0060 C0E16449 		.word	1231348160
 3621 0064 00000000 		.word	g_APinDescription
 3622              		.size	_ZNK8Platform19GetDriverStepTimingEjPf, .-_ZNK8Platform19GetDriverStepTimingEjPf
 3623              		.section	.text._ZN8Platform12ConfigureFanEjiR11GCodeBufferRK9StringRefRb,"ax",%progbits
 3624              		.align	1
 3625              		.p2align 2,,3
 3626              		.global	_ZN8Platform12ConfigureFanEjiR11GCodeBufferRK9StringRefRb
 3627              		.syntax unified
 3628              		.thumb
 3629              		.thumb_func
 3630              		.fpu fpv4-sp-d16
 3631              		.type	_ZN8Platform12ConfigureFanEjiR11GCodeBufferRK9StringRefRb, %function
 3632              	_ZN8Platform12ConfigureFanEjiR11GCodeBufferRK9StringRefRb:
 3633              		@ args = 8, pretend = 0, frame = 0
 3634              		@ frame_needed = 0, uses_anonymous_args = 0
 3635 0000 70B5     		push	{r4, r5, r6, lr}
 3636 0002 082A     		cmp	r2, #8
 3637 0004 DDE90465 		ldrd	r6, r5, [sp, #16]
 3638 0008 08D8     		bhi	.L646
 3639 000a 2C25     		movs	r5, #44
 3640 000c 05FB0200 		mla	r0, r5, r2, r0
 3641 0010 00F2D470 		addw	r0, r0, #2004
 3642 0014 BDE87040 		pop	{r4, r5, r6, lr}
 3643 0018 FFF7FEBF 		b	_ZN3Fan9ConfigureEjiR11GCodeBufferRK9StringRefRb
 3644              	.L646:
 3645 001c 3046     		mov	r0, r6
 3646 001e 0823     		movs	r3, #8
 3647 0020 0349     		ldr	r1, .L648
 3648 0022 FFF7FEFF 		bl	_ZNK9StringRef6printfEPKcz
ARM GAS  C:\Users\THOMAS~1.CAM\AppData\Local\Temp\cco4TuUn.s 			page 65


 3649 0026 0123     		movs	r3, #1
 3650 0028 2B70     		strb	r3, [r5]
 3651 002a 0020     		movs	r0, #0
 3652 002c 70BD     		pop	{r4, r5, r6, pc}
 3653              	.L649:
 3654 002e 00BF     		.align	2
 3655              	.L648:
 3656 0030 00000000 		.word	.LC21
 3657              		.size	_ZN8Platform12ConfigureFanEjiR11GCodeBufferRK9StringRefRb, .-_ZN8Platform12ConfigureFanEjiR1
 3658              		.section	.text._ZNK8Platform11GetFanValueEj,"ax",%progbits
 3659              		.align	1
 3660              		.p2align 2,,3
 3661              		.global	_ZNK8Platform11GetFanValueEj
 3662              		.syntax unified
 3663              		.thumb
 3664              		.thumb_func
 3665              		.fpu fpv4-sp-d16
 3666              		.type	_ZNK8Platform11GetFanValueEj, %function
 3667              	_ZNK8Platform11GetFanValueEj:
 3668              		@ args = 0, pretend = 0, frame = 0
 3669              		@ frame_needed = 0, uses_anonymous_args = 0
 3670              		@ link register save eliminated.
 3671 0000 0829     		cmp	r1, #8
 3672 0002 07D8     		bhi	.L652
 3673 0004 2C23     		movs	r3, #44
 3674 0006 03FB0101 		mla	r1, r3, r1, r0
 3675 000a 01F2D471 		addw	r1, r1, #2004
 3676 000e 91ED000A 		vldr.32	s0, [r1]
 3677 0012 7047     		bx	lr
 3678              	.L652:
 3679 0014 BFEE000A 		vmov.f32	s0, #-1.0e+0
 3680 0018 7047     		bx	lr
 3681              		.size	_ZNK8Platform11GetFanValueEj, .-_ZNK8Platform11GetFanValueEj
 3682 001a 00BF     		.section	.text._ZN8Platform11SetFanValueEjf,"ax",%progbits
 3683              		.align	1
 3684              		.p2align 2,,3
 3685              		.global	_ZN8Platform11SetFanValueEjf
 3686              		.syntax unified
 3687              		.thumb
 3688              		.thumb_func
 3689              		.fpu fpv4-sp-d16
 3690              		.type	_ZN8Platform11SetFanValueEjf, %function
 3691              	_ZN8Platform11SetFanValueEjf:
 3692              		@ args = 0, pretend = 0, frame = 0
 3693              		@ frame_needed = 0, uses_anonymous_args = 0
 3694              		@ link register save eliminated.
 3695 0000 0829     		cmp	r1, #8
 3696 0002 00D9     		bls	.L655
 3697 0004 7047     		bx	lr
 3698              	.L655:
 3699 0006 2C23     		movs	r3, #44
 3700 0008 03FB0100 		mla	r0, r3, r1, r0
 3701 000c 00F2D470 		addw	r0, r0, #2004
 3702 0010 FFF7FEBF 		b	_ZN3Fan6SetPwmEf
 3703              		.size	_ZN8Platform11SetFanValueEjf, .-_ZN8Platform11SetFanValueEjf
 3704              		.section	.text._ZNK8Platform9GetFanRPMEv,"ax",%progbits
 3705              		.align	1
ARM GAS  C:\Users\THOMAS~1.CAM\AppData\Local\Temp\cco4TuUn.s 			page 66


 3706              		.p2align 2,,3
 3707              		.global	_ZNK8Platform9GetFanRPMEv
 3708              		.syntax unified
 3709              		.thumb
 3710              		.thumb_func
 3711              		.fpu fpv4-sp-d16
 3712              		.type	_ZNK8Platform9GetFanRPMEv, %function
 3713              	_ZNK8Platform9GetFanRPMEv:
 3714              		@ args = 0, pretend = 0, frame = 0
 3715              		@ frame_needed = 0, uses_anonymous_args = 0
 3716 0000 10B5     		push	{r4, lr}
 3717 0002 0B4C     		ldr	r4, .L661
 3718 0004 2368     		ldr	r3, [r4]
 3719 0006 13B9     		cbnz	r3, .L657
 3720              	.L659:
 3721 0008 9FED0A0A 		vldr.32	s0, .L661+4
 3722 000c 10BD     		pop	{r4, pc}
 3723              	.L657:
 3724 000e FFF7FEFF 		bl	micros
 3725 0012 094B     		ldr	r3, .L661+8
 3726 0014 094A     		ldr	r2, .L661+12
 3727 0016 1B68     		ldr	r3, [r3]
 3728 0018 C01A     		subs	r0, r0, r3
 3729 001a 9042     		cmp	r0, r2
 3730 001c F4D8     		bhi	.L659
 3731 001e 2268     		ldr	r2, [r4]
 3732 0020 074B     		ldr	r3, .L661+16
 3733 0022 B3FBF2F3 		udiv	r3, r3, r2
 3734 0026 00EE103A 		vmov	s0, r3	@ int
 3735 002a B8EEC00A 		vcvt.f32.s32	s0, s0
 3736 002e 10BD     		pop	{r4, pc}
 3737              	.L662:
 3738              		.align	2
 3739              	.L661:
 3740 0030 00000000 		.word	.LANCHOR2
 3741 0034 00000000 		.word	0
 3742 0038 00000000 		.word	.LANCHOR1
 3743 003c BFC62D00 		.word	2999999
 3744 0040 00703839 		.word	960000000
 3745              		.size	_ZNK8Platform9GetFanRPMEv, .-_ZNK8Platform9GetFanRPMEv
 3746              		.section	.text._ZNK8Platform20FansHardwareInvertedEj,"ax",%progbits
 3747              		.align	1
 3748              		.p2align 2,,3
 3749              		.global	_ZNK8Platform20FansHardwareInvertedEj
 3750              		.syntax unified
 3751              		.thumb
 3752              		.thumb_func
 3753              		.fpu fpv4-sp-d16
 3754              		.type	_ZNK8Platform20FansHardwareInvertedEj, %function
 3755              	_ZNK8Platform20FansHardwareInvertedEj:
 3756              		@ args = 0, pretend = 0, frame = 0
 3757              		@ frame_needed = 0, uses_anonymous_args = 0
 3758              		@ link register save eliminated.
 3759 0000 0020     		movs	r0, #0
 3760 0002 7047     		bx	lr
 3761              		.size	_ZNK8Platform20FansHardwareInvertedEj, .-_ZNK8Platform20FansHardwareInvertedEj
 3762              		.section	.text._ZN8Platform8InitFansEv,"ax",%progbits
ARM GAS  C:\Users\THOMAS~1.CAM\AppData\Local\Temp\cco4TuUn.s 			page 67


 3763              		.align	1
 3764              		.p2align 2,,3
 3765              		.global	_ZN8Platform8InitFansEv
 3766              		.syntax unified
 3767              		.thumb
 3768              		.thumb_func
 3769              		.fpu fpv4-sp-d16
 3770              		.type	_ZN8Platform8InitFansEv, %function
 3771              	_ZN8Platform8InitFansEv:
 3772              		@ args = 0, pretend = 0, frame = 0
 3773              		@ frame_needed = 0, uses_anonymous_args = 0
 3774 0000 F8B5     		push	{r3, r4, r5, r6, r7, lr}
 3775 0002 3721     		movs	r1, #55
 3776 0004 0746     		mov	r7, r0
 3777 0006 0C4D     		ldr	r5, .L669
 3778 0008 00F2D474 		addw	r4, r0, #2004
 3779 000c 00F51666 		add	r6, r0, #2400
 3780 0010 01E0     		b	.L666
 3781              	.L668:
 3782 0012 15F8011F 		ldrb	r1, [r5, #1]!	@ zero_extendqisi2
 3783              	.L666:
 3784 0016 2046     		mov	r0, r4
 3785 0018 0022     		movs	r2, #0
 3786 001a 2C34     		adds	r4, r4, #44
 3787 001c FFF7FEFF 		bl	_ZN3Fan4InitEhb
 3788 0020 B442     		cmp	r4, r6
 3789 0022 F6D1     		bne	.L668
 3790 0024 6620     		movs	r0, #102
 3791 0026 87F86009 		strb	r0, [r7, #2400]
 3792 002a 40F2DC52 		movw	r2, #1500
 3793 002e 0121     		movs	r1, #1
 3794 0030 BDE8F840 		pop	{r3, r4, r5, r6, r7, lr}
 3795 0034 FFF7FEBF 		b	pinModeDuet
 3796              	.L670:
 3797              		.align	2
 3798              	.L669:
 3799 0038 00000000 		.word	.LANCHOR6
 3800              		.size	_ZN8Platform8InitFansEv, .-_ZN8Platform8InitFansEv
 3801              		.section	.text._ZN8Platform23SetEndStopConfigurationEj15EndStopPosition16EndStopInputType,"ax",%pr
 3802              		.align	1
 3803              		.p2align 2,,3
 3804              		.global	_ZN8Platform23SetEndStopConfigurationEj15EndStopPosition16EndStopInputType
 3805              		.syntax unified
 3806              		.thumb
 3807              		.thumb_func
 3808              		.fpu fpv4-sp-d16
 3809              		.type	_ZN8Platform23SetEndStopConfigurationEj15EndStopPosition16EndStopInputType, %function
 3810              	_ZN8Platform23SetEndStopConfigurationEj15EndStopPosition16EndStopInputType:
 3811              		@ args = 0, pretend = 0, frame = 0
 3812              		@ frame_needed = 0, uses_anonymous_args = 0
 3813              		@ link register save eliminated.
 3814 0000 00EB8101 		add	r1, r0, r1, lsl #2
 3815 0004 C1F86C27 		str	r2, [r1, #1900]
 3816 0008 C1F89037 		str	r3, [r1, #1936]
 3817 000c 7047     		bx	lr
 3818              		.size	_ZN8Platform23SetEndStopConfigurationEj15EndStopPosition16EndStopInputType, .-_ZN8Platform23
 3819 000e 00BF     		.section	.text._ZNK8Platform23GetEndStopConfigurationEjR15EndStopPositionR16EndStopInputType,"ax",
ARM GAS  C:\Users\THOMAS~1.CAM\AppData\Local\Temp\cco4TuUn.s 			page 68


 3820              		.align	1
 3821              		.p2align 2,,3
 3822              		.global	_ZNK8Platform23GetEndStopConfigurationEjR15EndStopPositionR16EndStopInputType
 3823              		.syntax unified
 3824              		.thumb
 3825              		.thumb_func
 3826              		.fpu fpv4-sp-d16
 3827              		.type	_ZNK8Platform23GetEndStopConfigurationEjR15EndStopPositionR16EndStopInputType, %function
 3828              	_ZNK8Platform23GetEndStopConfigurationEjR15EndStopPositionR16EndStopInputType:
 3829              		@ args = 0, pretend = 0, frame = 0
 3830              		@ frame_needed = 0, uses_anonymous_args = 0
 3831              		@ link register save eliminated.
 3832 0000 00EB8101 		add	r1, r0, r1, lsl #2
 3833 0004 D1F86C07 		ldr	r0, [r1, #1900]
 3834 0008 1060     		str	r0, [r2]
 3835 000a D1F89027 		ldr	r2, [r1, #1936]
 3836 000e 1A60     		str	r2, [r3]
 3837 0010 7047     		bx	lr
 3838              		.size	_ZNK8Platform23GetEndStopConfigurationEjR15EndStopPositionR16EndStopInputType, .-_ZNK8Platfo
 3839 0012 00BF     		.section	.text._ZN8Platform14AppendAuxReplyEPKcb,"ax",%progbits
 3840              		.align	1
 3841              		.p2align 2,,3
 3842              		.global	_ZN8Platform14AppendAuxReplyEPKcb
 3843              		.syntax unified
 3844              		.thumb
 3845              		.thumb_func
 3846              		.fpu fpv4-sp-d16
 3847              		.type	_ZN8Platform14AppendAuxReplyEPKcb, %function
 3848              	_ZN8Platform14AppendAuxReplyEPKcb:
 3849              		@ args = 0, pretend = 0, frame = 8
 3850              		@ frame_needed = 0, uses_anonymous_args = 0
 3851 0000 0B78     		ldrb	r3, [r1]	@ zero_extendqisi2
 3852 0002 A3B1     		cbz	r3, .L690
 3853 0004 90F87C39 		ldrb	r3, [r0, #2428]	@ zero_extendqisi2
 3854 0008 8BB1     		cbz	r3, .L690
 3855 000a 30B5     		push	{r4, r5, lr}
 3856 000c 0546     		mov	r5, r0
 3857 000e 83B0     		sub	sp, sp, #12
 3858 0010 0C46     		mov	r4, r1
 3859 0012 6AB9     		cbnz	r2, .L693
 3860 0014 D0F88009 		ldr	r0, [r0, #2432]
 3861 0018 C8B1     		cbz	r0, .L694
 3862              	.L679:
 3863 001a D5F88439 		ldr	r3, [r5, #2436]
 3864 001e 0133     		adds	r3, r3, #1
 3865 0020 2146     		mov	r1, r4
 3866 0022 C5F88439 		str	r3, [r5, #2436]
 3867 0026 FFF7FEFF 		bl	_ZN12OutputBuffer3catEPKc
 3868              	.L673:
 3869 002a 03B0     		add	sp, sp, #12
 3870              		@ sp needed
 3871 002c 30BD     		pop	{r4, r5, pc}
 3872              	.L690:
 3873 002e 7047     		bx	lr
 3874              	.L693:
 3875 0030 01A8     		add	r0, sp, #4
 3876 0032 FFF7FEFF 		bl	_ZN12OutputBuffer8AllocateERPS_
ARM GAS  C:\Users\THOMAS~1.CAM\AppData\Local\Temp\cco4TuUn.s 			page 69


 3877 0036 0028     		cmp	r0, #0
 3878 0038 F7D0     		beq	.L673
 3879 003a 2146     		mov	r1, r4
 3880 003c 0198     		ldr	r0, [sp, #4]
 3881 003e FFF7FEFF 		bl	_ZN12OutputBuffer4copyEPKc
 3882 0042 D5F87409 		ldr	r0, [r5, #2420]
 3883 0046 0199     		ldr	r1, [sp, #4]
 3884 0048 FFF7FEFF 		bl	_ZN11OutputStack4PushEP12OutputBuffer
 3885 004c EDE7     		b	.L673
 3886              	.L694:
 3887 004e 05F51860 		add	r0, r5, #2432
 3888 0052 FFF7FEFF 		bl	_ZN12OutputBuffer8AllocateERPS_
 3889 0056 0028     		cmp	r0, #0
 3890 0058 E7D0     		beq	.L673
 3891 005a D5F88009 		ldr	r0, [r5, #2432]
 3892 005e DCE7     		b	.L679
 3893              		.size	_ZN8Platform14AppendAuxReplyEPKcb, .-_ZN8Platform14AppendAuxReplyEPKcb
 3894              		.section	.text._ZN8Platform14AppendAuxReplyEP12OutputBufferb,"ax",%progbits
 3895              		.align	1
 3896              		.p2align 2,,3
 3897              		.global	_ZN8Platform14AppendAuxReplyEP12OutputBufferb
 3898              		.syntax unified
 3899              		.thumb
 3900              		.thumb_func
 3901              		.fpu fpv4-sp-d16
 3902              		.type	_ZN8Platform14AppendAuxReplyEP12OutputBufferb, %function
 3903              	_ZN8Platform14AppendAuxReplyEP12OutputBufferb:
 3904              		@ args = 0, pretend = 0, frame = 0
 3905              		@ frame_needed = 0, uses_anonymous_args = 0
 3906 0000 70B5     		push	{r4, r5, r6, lr}
 3907 0002 0C46     		mov	r4, r1
 3908 0004 B1B1     		cbz	r1, .L697
 3909 0006 0546     		mov	r5, r0
 3910 0008 0846     		mov	r0, r1
 3911 000a 1646     		mov	r6, r2
 3912 000c FFF7FEFF 		bl	_ZNK12OutputBuffer6LengthEv
 3913 0010 80B1     		cbz	r0, .L697
 3914 0012 95F87C39 		ldrb	r3, [r5, #2428]	@ zero_extendqisi2
 3915 0016 6BB1     		cbz	r3, .L697
 3916 0018 8EB9     		cbnz	r6, .L709
 3917 001a D5F88439 		ldr	r3, [r5, #2436]
 3918 001e D5F88009 		ldr	r0, [r5, #2432]
 3919 0022 0133     		adds	r3, r3, #1
 3920 0024 C5F88439 		str	r3, [r5, #2436]
 3921 0028 80B1     		cbz	r0, .L710
 3922 002a 2146     		mov	r1, r4
 3923 002c BDE87040 		pop	{r4, r5, r6, lr}
 3924 0030 FFF7FEBF 		b	_ZN12OutputBuffer6AppendEPS_
 3925              	.L697:
 3926 0034 2046     		mov	r0, r4
 3927 0036 BDE87040 		pop	{r4, r5, r6, lr}
 3928 003a FFF7FEBF 		b	_ZN12OutputBuffer10ReleaseAllEPS_
 3929              	.L709:
 3930 003e 2146     		mov	r1, r4
 3931 0040 D5F87409 		ldr	r0, [r5, #2420]
 3932 0044 BDE87040 		pop	{r4, r5, r6, lr}
 3933 0048 FFF7FEBF 		b	_ZN11OutputStack4PushEP12OutputBuffer
ARM GAS  C:\Users\THOMAS~1.CAM\AppData\Local\Temp\cco4TuUn.s 			page 70


 3934              	.L710:
 3935 004c C5F88049 		str	r4, [r5, #2432]
 3936 0050 70BD     		pop	{r4, r5, r6, pc}
 3937              		.size	_ZN8Platform14AppendAuxReplyEP12OutputBufferb, .-_ZN8Platform14AppendAuxReplyEP12OutputBuffe
 3938 0052 00BF     		.section	.text._ZN8Platform7MessageE11MessageTypeP12OutputBuffer,"ax",%progbits
 3939              		.align	1
 3940              		.p2align 2,,3
 3941              		.global	_ZN8Platform7MessageE11MessageTypeP12OutputBuffer
 3942              		.syntax unified
 3943              		.thumb
 3944              		.thumb_func
 3945              		.fpu fpv4-sp-d16
 3946              		.type	_ZN8Platform7MessageE11MessageTypeP12OutputBuffer, %function
 3947              	_ZN8Platform7MessageE11MessageTypeP12OutputBuffer:
 3948              		@ args = 0, pretend = 0, frame = 0
 3949              		@ frame_needed = 0, uses_anonymous_args = 0
 3950 0000 2DE9F047 		push	{r4, r5, r6, r7, r8, r9, r10, lr}
 3951 0004 0B06     		lsls	r3, r1, #24
 3952 0006 82B0     		sub	sp, sp, #8
 3953 0008 0C46     		mov	r4, r1
 3954 000a 0646     		mov	r6, r0
 3955 000c 1546     		mov	r5, r2
 3956 000e 08D5     		bpl	.L712
 3957 0010 006C     		ldr	r0, [r0, #64]
 3958 0012 30B1     		cbz	r0, .L712
 3959 0014 06F51D63 		add	r3, r6, #2512
 3960 0018 D3E90023 		ldrd	r2, [r3]
 3961 001c 0095     		str	r5, [sp]
 3962 001e FFF7FEFF 		bl	_ZN6Logger10LogMessageExP12OutputBuffer
 3963              	.L712:
 3964 0022 14F00C0A 		ands	r10, r4, #12
 3965 0026 14BF     		ite	ne
 3966 0028 0121     		movne	r1, #1
 3967 002a 0021     		moveq	r1, #0
 3968 002c 14F00307 		ands	r7, r4, #3
 3969 0030 18BF     		it	ne
 3970 0032 0131     		addne	r1, r1, #1
 3971 0034 14F01009 		ands	r9, r4, #16
 3972 0038 16D0     		beq	.L714
 3973 003a 14F02008 		ands	r8, r4, #32
 3974 003e 01F10101 		add	r1, r1, #1
 3975 0042 00D0     		beq	.L716
 3976              	.L715:
 3977 0044 0131     		adds	r1, r1, #1
 3978              	.L716:
 3979 0046 0139     		subs	r1, r1, #1
 3980 0048 2846     		mov	r0, r5
 3981 004a FFF7FEFF 		bl	_ZN12OutputBuffer18IncreaseReferencesEj
 3982 004e BAF1000F 		cmp	r10, #0
 3983 0052 38D1     		bne	.L754
 3984 0054 B9F1000F 		cmp	r9, #0
 3985 0058 25D1     		bne	.L755
 3986              	.L720:
 3987 005a B8F1000F 		cmp	r8, #0
 3988 005e 2AD1     		bne	.L756
 3989              	.L721:
 3990 0060 6FB9     		cbnz	r7, .L757
ARM GAS  C:\Users\THOMAS~1.CAM\AppData\Local\Temp\cco4TuUn.s 			page 71


 3991              	.L711:
 3992 0062 02B0     		add	sp, sp, #8
 3993              		@ sp needed
 3994 0064 BDE8F087 		pop	{r4, r5, r6, r7, r8, r9, r10, pc}
 3995              	.L714:
 3996 0068 14F02008 		ands	r8, r4, #32
 3997 006c EAD1     		bne	.L715
 3998 006e 0029     		cmp	r1, #0
 3999 0070 E9D1     		bne	.L716
 4000              	.L723:
 4001 0072 2846     		mov	r0, r5
 4002 0074 02B0     		add	sp, sp, #8
 4003              		@ sp needed
 4004 0076 BDE8F047 		pop	{r4, r5, r6, r7, r8, r9, r10, lr}
 4005 007a FFF7FEBF 		b	_ZN12OutputBuffer10ReleaseAllEPS_
 4006              	.L757:
 4007 007e 1B48     		ldr	r0, .L758
 4008 0080 FFF7FEFF 		bl	_ZNK9SerialCDCcvbEv
 4009 0084 0028     		cmp	r0, #0
 4010 0086 F4D0     		beq	.L723
 4011 0088 194B     		ldr	r3, .L758+4
 4012 008a 1B6A     		ldr	r3, [r3, #32]
 4013 008c 5A69     		ldr	r2, [r3, #20]
 4014 008e 12B1     		cbz	r2, .L724
 4015 0090 5B7B     		ldrb	r3, [r3, #13]	@ zero_extendqisi2
 4016 0092 002B     		cmp	r3, #0
 4017 0094 EDD0     		beq	.L723
 4018              	.L724:
 4019 0096 D6F87809 		ldr	r0, [r6, #2424]
 4020 009a 2946     		mov	r1, r5
 4021 009c 02B0     		add	sp, sp, #8
 4022              		@ sp needed
 4023 009e BDE8F047 		pop	{r4, r5, r6, r7, r8, r9, r10, lr}
 4024 00a2 FFF7FEBF 		b	_ZN11OutputStack4PushEP12OutputBuffer
 4025              	.L755:
 4026 00a6 124B     		ldr	r3, .L758+4
 4027 00a8 2946     		mov	r1, r5
 4028 00aa D868     		ldr	r0, [r3, #12]
 4029 00ac FFF7FEFF 		bl	_ZN7Network20HandleHttpGCodeReplyEP12OutputBuffer
 4030 00b0 B8F1000F 		cmp	r8, #0
 4031 00b4 D4D0     		beq	.L721
 4032              	.L756:
 4033 00b6 0E4B     		ldr	r3, .L758+4
 4034 00b8 2946     		mov	r1, r5
 4035 00ba D868     		ldr	r0, [r3, #12]
 4036 00bc FFF7FEFF 		bl	_ZN7Network22HandleTelnetGCodeReplyEP12OutputBuffer
 4037 00c0 002F     		cmp	r7, #0
 4038 00c2 CED0     		beq	.L711
 4039 00c4 DBE7     		b	.L757
 4040              	.L754:
 4041 00c6 0021     		movs	r1, #0
 4042 00c8 2846     		mov	r0, r5
 4043 00ca FFF7FEFF 		bl	_ZN12OutputBufferixEj
 4044 00ce 0378     		ldrb	r3, [r0]	@ zero_extendqisi2
 4045 00d0 7B2B     		cmp	r3, #123
 4046 00d2 14BF     		ite	ne
 4047 00d4 C4F38022 		ubfxne	r2, r4, #10, #1
ARM GAS  C:\Users\THOMAS~1.CAM\AppData\Local\Temp\cco4TuUn.s 			page 72


 4048 00d8 0122     		moveq	r2, #1
 4049 00da 2946     		mov	r1, r5
 4050 00dc 3046     		mov	r0, r6
 4051 00de FFF7FEFF 		bl	_ZN8Platform14AppendAuxReplyEP12OutputBufferb
 4052 00e2 B9F1000F 		cmp	r9, #0
 4053 00e6 B8D0     		beq	.L720
 4054 00e8 DDE7     		b	.L755
 4055              	.L759:
 4056 00ea 00BF     		.align	2
 4057              	.L758:
 4058 00ec 00000000 		.word	SerialUSB
 4059 00f0 00000000 		.word	reprap
 4060              		.size	_ZN8Platform7MessageE11MessageTypeP12OutputBuffer, .-_ZN8Platform7MessageE11MessageTypeP12Ou
 4061              		.section	.text._ZN8Platform11StopLoggingEv,"ax",%progbits
 4062              		.align	1
 4063              		.p2align 2,,3
 4064              		.global	_ZN8Platform11StopLoggingEv
 4065              		.syntax unified
 4066              		.thumb
 4067              		.thumb_func
 4068              		.fpu fpv4-sp-d16
 4069              		.type	_ZN8Platform11StopLoggingEv, %function
 4070              	_ZN8Platform11StopLoggingEv:
 4071              		@ args = 0, pretend = 0, frame = 0
 4072              		@ frame_needed = 0, uses_anonymous_args = 0
 4073              		@ link register save eliminated.
 4074 0000 026C     		ldr	r2, [r0, #64]
 4075 0002 32B1     		cbz	r2, .L760
 4076 0004 00F51D63 		add	r3, r0, #2512
 4077 0008 1046     		mov	r0, r2
 4078 000a D3E90023 		ldrd	r2, [r3]
 4079 000e FFF7FEBF 		b	_ZN6Logger4StopEx
 4080              	.L760:
 4081 0012 7047     		bx	lr
 4082              		.size	_ZN8Platform11StopLoggingEv, .-_ZN8Platform11StopLoggingEv
 4083              		.section	.text._ZNK8Platform8AtxPowerEv,"ax",%progbits
 4084              		.align	1
 4085              		.p2align 2,,3
 4086              		.global	_ZNK8Platform8AtxPowerEv
 4087              		.syntax unified
 4088              		.thumb
 4089              		.thumb_func
 4090              		.fpu fpv4-sp-d16
 4091              		.type	_ZNK8Platform8AtxPowerEv, %function
 4092              	_ZNK8Platform8AtxPowerEv:
 4093              		@ args = 0, pretend = 0, frame = 0
 4094              		@ frame_needed = 0, uses_anonymous_args = 0
 4095              		@ link register save eliminated.
 4096 0000 4F20     		movs	r0, #79
 4097 0002 FFF7FEBF 		b	_ZN6IoPort7ReadPinEh
 4098              		.size	_ZNK8Platform8AtxPowerEv, .-_ZNK8Platform8AtxPowerEv
 4099 0006 00BF     		.section	.text._ZN8Platform10AtxPowerOnEv,"ax",%progbits
 4100              		.align	1
 4101              		.p2align 2,,3
 4102              		.global	_ZN8Platform10AtxPowerOnEv
 4103              		.syntax unified
 4104              		.thumb
ARM GAS  C:\Users\THOMAS~1.CAM\AppData\Local\Temp\cco4TuUn.s 			page 73


 4105              		.thumb_func
 4106              		.fpu fpv4-sp-d16
 4107              		.type	_ZN8Platform10AtxPowerOnEv, %function
 4108              	_ZN8Platform10AtxPowerOnEv:
 4109              		@ args = 0, pretend = 0, frame = 0
 4110              		@ frame_needed = 0, uses_anonymous_args = 0
 4111              		@ link register save eliminated.
 4112 0000 0023     		movs	r3, #0
 4113 0002 80F8F839 		strb	r3, [r0, #2552]
 4114 0006 0121     		movs	r1, #1
 4115 0008 4F20     		movs	r0, #79
 4116 000a FFF7FEBF 		b	_ZN6IoPort12WriteDigitalEhb
 4117              		.size	_ZN8Platform10AtxPowerOnEv, .-_ZN8Platform10AtxPowerOnEv
 4118 000e 00BF     		.section	.text._ZN8Platform11AtxPowerOffEb,"ax",%progbits
 4119              		.align	1
 4120              		.p2align 2,,3
 4121              		.global	_ZN8Platform11AtxPowerOffEb
 4122              		.syntax unified
 4123              		.thumb
 4124              		.thumb_func
 4125              		.fpu fpv4-sp-d16
 4126              		.type	_ZN8Platform11AtxPowerOffEb, %function
 4127              	_ZN8Platform11AtxPowerOffEb:
 4128              		@ args = 0, pretend = 0, frame = 0
 4129              		@ frame_needed = 0, uses_anonymous_args = 0
 4130              		@ link register save eliminated.
 4131 0000 80F8F819 		strb	r1, [r0, #2552]
 4132 0004 09B9     		cbnz	r1, .L764
 4133 0006 FFF7FEBF 		b	_ZN8Platform11AtxPowerOffEb.part.35
 4134              	.L764:
 4135 000a 7047     		bx	lr
 4136              		.size	_ZN8Platform11AtxPowerOffEb, .-_ZN8Platform11AtxPowerOffEb
 4137              		.section	.text._ZN8Platform18SetPressureAdvanceEjf,"ax",%progbits
 4138              		.align	1
 4139              		.p2align 2,,3
 4140              		.global	_ZN8Platform18SetPressureAdvanceEjf
 4141              		.syntax unified
 4142              		.thumb
 4143              		.thumb_func
 4144              		.fpu fpv4-sp-d16
 4145              		.type	_ZN8Platform18SetPressureAdvanceEjf, %function
 4146              	_ZN8Platform18SetPressureAdvanceEjf:
 4147              		@ args = 0, pretend = 0, frame = 0
 4148              		@ frame_needed = 0, uses_anonymous_args = 0
 4149              		@ link register save eliminated.
 4150 0000 0829     		cmp	r1, #8
 4151 0002 9CBF     		itt	ls
 4152 0004 00EB8100 		addls	r0, r0, r1, lsl #2
 4153 0008 80ED810A 		vstrls.32	s0, [r0, #516]
 4154 000c 7047     		bx	lr
 4155              		.size	_ZN8Platform18SetPressureAdvanceEjf, .-_ZN8Platform18SetPressureAdvanceEjf
 4156 000e 00BF     		.section	.text._ZNK8Platform24GetExtrusionCoefficientsEjRfS0_S0_,"ax",%progbits
 4157              		.align	1
 4158              		.p2align 2,,3
 4159              		.global	_ZNK8Platform24GetExtrusionCoefficientsEjRfS0_S0_
 4160              		.syntax unified
 4161              		.thumb
ARM GAS  C:\Users\THOMAS~1.CAM\AppData\Local\Temp\cco4TuUn.s 			page 74


 4162              		.thumb_func
 4163              		.fpu fpv4-sp-d16
 4164              		.type	_ZNK8Platform24GetExtrusionCoefficientsEjRfS0_S0_, %function
 4165              	_ZNK8Platform24GetExtrusionCoefficientsEjRfS0_S0_:
 4166              		@ args = 4, pretend = 0, frame = 0
 4167              		@ frame_needed = 0, uses_anonymous_args = 0
 4168              		@ link register save eliminated.
 4169 0000 0829     		cmp	r1, #8
 4170 0002 0DD8     		bhi	.L770
 4171 0004 00EB8100 		add	r0, r0, r1, lsl #2
 4172 0008 D0F82812 		ldr	r1, [r0, #552]	@ float
 4173 000c 1160     		str	r1, [r2]	@ float
 4174 000e D0F84C22 		ldr	r2, [r0, #588]	@ float
 4175 0012 1A60     		str	r2, [r3]	@ float
 4176 0014 009A     		ldr	r2, [sp]
 4177 0016 D0F87032 		ldr	r3, [r0, #624]	@ float
 4178 001a 1360     		str	r3, [r2]	@ float
 4179 001c 0120     		movs	r0, #1
 4180 001e 7047     		bx	lr
 4181              	.L770:
 4182 0020 0020     		movs	r0, #0
 4183 0022 7047     		bx	lr
 4184              		.size	_ZNK8Platform24GetExtrusionCoefficientsEjRfS0_S0_, .-_ZNK8Platform24GetExtrusionCoefficients
 4185              		.section	.text._ZN8Platform21SetNonlinearExtrusionEjfff,"ax",%progbits
 4186              		.align	1
 4187              		.p2align 2,,3
 4188              		.global	_ZN8Platform21SetNonlinearExtrusionEjfff
 4189              		.syntax unified
 4190              		.thumb
 4191              		.thumb_func
 4192              		.fpu fpv4-sp-d16
 4193              		.type	_ZN8Platform21SetNonlinearExtrusionEjfff, %function
 4194              	_ZN8Platform21SetNonlinearExtrusionEjfff:
 4195              		@ args = 0, pretend = 0, frame = 0
 4196              		@ frame_needed = 0, uses_anonymous_args = 0
 4197              		@ link register save eliminated.
 4198 0000 0829     		cmp	r1, #8
 4199 0002 0ED8     		bhi	.L771
 4200 0004 00EB8100 		add	r0, r0, r1, lsl #2
 4201 0008 D0ED9C7A 		vldr.32	s15, [r0, #624]
 4202 000c F5EEC07A 		vcmpe.f32	s15, #0
 4203 0010 F1EE10FA 		vmrs	APSR_nzcv, FPSCR
 4204 0014 05DD     		ble	.L771
 4205 0016 80ED9C1A 		vstr.32	s2, [r0, #624]
 4206 001a 80ED8A0A 		vstr.32	s0, [r0, #552]
 4207 001e C0ED930A 		vstr.32	s1, [r0, #588]
 4208              	.L771:
 4209 0022 7047     		bx	lr
 4210              		.size	_ZN8Platform21SetNonlinearExtrusionEjfff, .-_ZN8Platform21SetNonlinearExtrusionEjfff
 4211              		.section	.text._ZNK8Platform11GetBaudRateEj,"ax",%progbits
 4212              		.align	1
 4213              		.p2align 2,,3
 4214              		.global	_ZNK8Platform11GetBaudRateEj
 4215              		.syntax unified
 4216              		.thumb
 4217              		.thumb_func
 4218              		.fpu fpv4-sp-d16
ARM GAS  C:\Users\THOMAS~1.CAM\AppData\Local\Temp\cco4TuUn.s 			page 75


 4219              		.type	_ZNK8Platform11GetBaudRateEj, %function
 4220              	_ZNK8Platform11GetBaudRateEj:
 4221              		@ args = 0, pretend = 0, frame = 0
 4222              		@ frame_needed = 0, uses_anonymous_args = 0
 4223              		@ link register save eliminated.
 4224 0000 0129     		cmp	r1, #1
 4225 0002 9ABF     		itte	ls
 4226 0004 01F25A21 		addwls	r1, r1, #602
 4227 0008 50F82100 		ldrls	r0, [r0, r1, lsl #2]
 4228 000c 0020     		movhi	r0, #0
 4229 000e 7047     		bx	lr
 4230              		.size	_ZNK8Platform11GetBaudRateEj, .-_ZNK8Platform11GetBaudRateEj
 4231              		.section	.text._ZNK8Platform18GetCommsPropertiesEj,"ax",%progbits
 4232              		.align	1
 4233              		.p2align 2,,3
 4234              		.global	_ZNK8Platform18GetCommsPropertiesEj
 4235              		.syntax unified
 4236              		.thumb
 4237              		.thumb_func
 4238              		.fpu fpv4-sp-d16
 4239              		.type	_ZNK8Platform18GetCommsPropertiesEj, %function
 4240              	_ZNK8Platform18GetCommsPropertiesEj:
 4241              		@ args = 0, pretend = 0, frame = 0
 4242              		@ frame_needed = 0, uses_anonymous_args = 0
 4243              		@ link register save eliminated.
 4244 0000 0129     		cmp	r1, #1
 4245 0002 9ABF     		itte	ls
 4246 0004 0918     		addls	r1, r1, r0
 4247 0006 91F87009 		ldrbls	r0, [r1, #2416]	@ zero_extendqisi2
 4248 000a 0020     		movhi	r0, #0
 4249 000c 7047     		bx	lr
 4250              		.size	_ZNK8Platform18GetCommsPropertiesEj, .-_ZNK8Platform18GetCommsPropertiesEj
 4251 000e 00BF     		.section	.text._ZN8Platform12SetBoardTypeE9BoardType,"ax",%progbits
 4252              		.align	1
 4253              		.p2align 2,,3
 4254              		.global	_ZN8Platform12SetBoardTypeE9BoardType
 4255              		.syntax unified
 4256              		.thumb
 4257              		.thumb_func
 4258              		.fpu fpv4-sp-d16
 4259              		.type	_ZN8Platform12SetBoardTypeE9BoardType, %function
 4260              	_ZN8Platform12SetBoardTypeE9BoardType:
 4261              		@ args = 0, pretend = 0, frame = 0
 4262              		@ frame_needed = 0, uses_anonymous_args = 0
 4263 0000 F8B5     		push	{r3, r4, r5, r6, r7, lr}
 4264 0002 0546     		mov	r5, r0
 4265 0004 0C46     		mov	r4, r1
 4266 0006 69B1     		cbz	r1, .L794
 4267 0008 85F8FC10 		strb	r1, [r5, #252]
 4268              	.L786:
 4269 000c 95F80431 		ldrb	r3, [r5, #260]	@ zero_extendqisi2
 4270 0010 03B9     		cbnz	r3, .L795
 4271 0012 F8BD     		pop	{r3, r4, r5, r6, r7, pc}
 4272              	.L795:
 4273 0014 2846     		mov	r0, r5
 4274 0016 FFF7FEFF 		bl	_ZN8Platform10InitZProbeEv
 4275 001a 2846     		mov	r0, r5
ARM GAS  C:\Users\THOMAS~1.CAM\AppData\Local\Temp\cco4TuUn.s 			page 76


 4276 001c BDE8F840 		pop	{r3, r4, r5, r6, r7, lr}
 4277 0020 FFF7FEBF 		b	_ZN8Platform8InitFansEv
 4278              	.L794:
 4279 0024 0A46     		mov	r2, r1
 4280 0026 6420     		movs	r0, #100
 4281 0028 0321     		movs	r1, #3
 4282 002a FFF7FEFF 		bl	pinModeDuet
 4283 002e 2246     		mov	r2, r4
 4284 0030 0121     		movs	r1, #1
 4285 0032 0520     		movs	r0, #5
 4286 0034 FFF7FEFF 		bl	pinModeDuet
 4287 0038 4FF4C876 		mov	r6, #400
 4288 003c 2246     		mov	r2, r4
 4289 003e 0121     		movs	r1, #1
 4290 0040 6720     		movs	r0, #103
 4291 0042 FFF7FEFF 		bl	pinModeDuet
 4292 0046 3346     		mov	r3, r6
 4293              		.syntax unified
 4294              	@ 83 "C:\Users\thomas.camguilhem\Documents\Duet Firmwares\RepRapFirmware-1.21_lynxrev_1.7\CoreNG\co
 4295              		L_4696_delayMicroseconds:
 4296 0048 013B     		subs   r3, #1
 4297 004a FDD1     		bne    L_4696_delayMicroseconds
 4298              	
 4299              	@ 0 "" 2
 4300              		.thumb
 4301              		.syntax unified
 4302 004c 6720     		movs	r0, #103
 4303 004e FFF7FEFF 		bl	digitalRead
 4304 0052 2246     		mov	r2, r4
 4305 0054 0746     		mov	r7, r0
 4306 0056 0221     		movs	r1, #2
 4307 0058 6720     		movs	r0, #103
 4308 005a FFF7FEFF 		bl	pinModeDuet
 4309              		.syntax unified
 4310              	@ 83 "C:\Users\thomas.camguilhem\Documents\Duet Firmwares\RepRapFirmware-1.21_lynxrev_1.7\CoreNG\co
 4311              		L_4704_delayMicroseconds:
 4312 005e 013E     		subs   r6, #1
 4313 0060 FDD1     		bne    L_4704_delayMicroseconds
 4314              	
 4315              	@ 0 "" 2
 4316              		.thumb
 4317              		.syntax unified
 4318 0062 6720     		movs	r0, #103
 4319 0064 FFF7FEFF 		bl	digitalRead
 4320 0068 40B9     		cbnz	r0, .L783
 4321 006a 3FB1     		cbz	r7, .L783
 4322 006c 0520     		movs	r0, #5
 4323 006e FFF7FEFF 		bl	digitalRead
 4324 0072 80B9     		cbnz	r0, .L788
 4325 0074 0323     		movs	r3, #3
 4326              	.L785:
 4327 0076 85F8FC30 		strb	r3, [r5, #252]
 4328 007a C7E7     		b	.L786
 4329              	.L783:
 4330 007c 0022     		movs	r2, #0
 4331 007e 6720     		movs	r0, #103
 4332 0080 1146     		mov	r1, r2
ARM GAS  C:\Users\THOMAS~1.CAM\AppData\Local\Temp\cco4TuUn.s 			page 77


 4333 0082 FFF7FEFF 		bl	pinModeDuet
 4334 0086 0520     		movs	r0, #5
 4335 0088 FFF7FEFF 		bl	digitalRead
 4336 008c 08B1     		cbz	r0, .L789
 4337 008e 0223     		movs	r3, #2
 4338 0090 F1E7     		b	.L785
 4339              	.L789:
 4340 0092 0423     		movs	r3, #4
 4341 0094 EFE7     		b	.L785
 4342              	.L788:
 4343 0096 0123     		movs	r3, #1
 4344 0098 EDE7     		b	.L785
 4345              		.size	_ZN8Platform12SetBoardTypeE9BoardType, .-_ZN8Platform12SetBoardTypeE9BoardType
 4346 009a 00BF     		.section	.text._ZNK8Platform20GetElectronicsStringEv,"ax",%progbits
 4347              		.align	1
 4348              		.p2align 2,,3
 4349              		.global	_ZNK8Platform20GetElectronicsStringEv
 4350              		.syntax unified
 4351              		.thumb
 4352              		.thumb_func
 4353              		.fpu fpv4-sp-d16
 4354              		.type	_ZNK8Platform20GetElectronicsStringEv, %function
 4355              	_ZNK8Platform20GetElectronicsStringEv:
 4356              		@ args = 0, pretend = 0, frame = 0
 4357              		@ frame_needed = 0, uses_anonymous_args = 0
 4358              		@ link register save eliminated.
 4359 0000 90F8FC30 		ldrb	r3, [r0, #252]	@ zero_extendqisi2
 4360 0004 013B     		subs	r3, r3, #1
 4361 0006 DBB2     		uxtb	r3, r3
 4362 0008 032B     		cmp	r3, #3
 4363 000a 9ABF     		itte	ls
 4364 000c 024A     		ldrls	r2, .L799
 4365 000e 52F82300 		ldrls	r0, [r2, r3, lsl #2]
 4366 0012 0248     		ldrhi	r0, .L799+4
 4367 0014 7047     		bx	lr
 4368              	.L800:
 4369 0016 00BF     		.align	2
 4370              	.L799:
 4371 0018 00000000 		.word	.LANCHOR7
 4372 001c 00000000 		.word	.LC22
 4373              		.size	_ZNK8Platform20GetElectronicsStringEv, .-_ZNK8Platform20GetElectronicsStringEv
 4374              		.section	.text._ZNK8Platform14GetBoardStringEv,"ax",%progbits
 4375              		.align	1
 4376              		.p2align 2,,3
 4377              		.global	_ZNK8Platform14GetBoardStringEv
 4378              		.syntax unified
 4379              		.thumb
 4380              		.thumb_func
 4381              		.fpu fpv4-sp-d16
 4382              		.type	_ZNK8Platform14GetBoardStringEv, %function
 4383              	_ZNK8Platform14GetBoardStringEv:
 4384              		@ args = 0, pretend = 0, frame = 0
 4385              		@ frame_needed = 0, uses_anonymous_args = 0
 4386              		@ link register save eliminated.
 4387 0000 90F8FC30 		ldrb	r3, [r0, #252]	@ zero_extendqisi2
 4388 0004 013B     		subs	r3, r3, #1
 4389 0006 DBB2     		uxtb	r3, r3
ARM GAS  C:\Users\THOMAS~1.CAM\AppData\Local\Temp\cco4TuUn.s 			page 78


 4390 0008 032B     		cmp	r3, #3
 4391 000a 9ABF     		itte	ls
 4392 000c 024A     		ldrls	r2, .L804
 4393 000e 52F82300 		ldrls	r0, [r2, r3, lsl #2]
 4394 0012 0248     		ldrhi	r0, .L804+4
 4395 0014 7047     		bx	lr
 4396              	.L805:
 4397 0016 00BF     		.align	2
 4398              	.L804:
 4399 0018 00000000 		.word	.LANCHOR8
 4400 001c 00000000 		.word	.LC23
 4401              		.size	_ZNK8Platform14GetBoardStringEv, .-_ZNK8Platform14GetBoardStringEv
 4402              		.section	.text._ZNK8Platform10IsDuetWiFiEv,"ax",%progbits
 4403              		.align	1
 4404              		.p2align 2,,3
 4405              		.global	_ZNK8Platform10IsDuetWiFiEv
 4406              		.syntax unified
 4407              		.thumb
 4408              		.thumb_func
 4409              		.fpu fpv4-sp-d16
 4410              		.type	_ZNK8Platform10IsDuetWiFiEv, %function
 4411              	_ZNK8Platform10IsDuetWiFiEv:
 4412              		@ args = 0, pretend = 0, frame = 0
 4413              		@ frame_needed = 0, uses_anonymous_args = 0
 4414              		@ link register save eliminated.
 4415 0000 90F8FC00 		ldrb	r0, [r0, #252]	@ zero_extendqisi2
 4416 0004 0138     		subs	r0, r0, #1
 4417 0006 0128     		cmp	r0, #1
 4418 0008 8CBF     		ite	hi
 4419 000a 0020     		movhi	r0, #0
 4420 000c 0120     		movls	r0, #1
 4421 000e 7047     		bx	lr
 4422              		.size	_ZNK8Platform10IsDuetWiFiEv, .-_ZNK8Platform10IsDuetWiFiEv
 4423              		.section	.text._ZN8Platform14GetFirmwarePinEt9PinAccessRhRb,"ax",%progbits
 4424              		.align	1
 4425              		.p2align 2,,3
 4426              		.global	_ZN8Platform14GetFirmwarePinEt9PinAccessRhRb
 4427              		.syntax unified
 4428              		.thumb
 4429              		.thumb_func
 4430              		.fpu fpv4-sp-d16
 4431              		.type	_ZN8Platform14GetFirmwarePinEt9PinAccessRhRb, %function
 4432              	_ZN8Platform14GetFirmwarePinEt9PinAccessRhRb:
 4433              		@ args = 4, pretend = 0, frame = 0
 4434              		@ frame_needed = 0, uses_anonymous_args = 0
 4435 0000 70B5     		push	{r4, r5, r6, lr}
 4436 0002 049E     		ldr	r6, [sp, #16]
 4437 0004 FF25     		movs	r5, #255
 4438 0006 0024     		movs	r4, #0
 4439 0008 0729     		cmp	r1, #7
 4440 000a 1D70     		strb	r5, [r3]
 4441 000c 3470     		strb	r4, [r6]
 4442 000e 1DD8     		bhi	.L808
 4443 0010 414C     		ldr	r4, .L851
 4444 0012 6469     		ldr	r4, [r4, #20]
 4445 0014 04EB8104 		add	r4, r4, r1, lsl #2
 4446 0018 646C     		ldr	r4, [r4, #68]
ARM GAS  C:\Users\THOMAS~1.CAM\AppData\Local\Temp\cco4TuUn.s 			page 79


 4447 001a 94F84640 		ldrb	r4, [r4, #70]	@ zero_extendqisi2
 4448 001e 3CB3     		cbz	r4, .L809
 4449              	.L844:
 4450 0020 1C78     		ldrb	r4, [r3]	@ zero_extendqisi2
 4451              	.L810:
 4452 0022 FF2C     		cmp	r4, #255
 4453 0024 35D0     		beq	.L825
 4454              	.L820:
 4455 0026 012A     		cmp	r2, #1
 4456 0028 35D0     		beq	.L845
 4457              	.L822:
 4458 002a 023A     		subs	r2, r2, #2
 4459 002c 012A     		cmp	r2, #1
 4460 002e 4DD9     		bls	.L846
 4461 0030 0125     		movs	r5, #1
 4462              	.L823:
 4463 0032 4618     		adds	r6, r0, r1
 4464 0034 96F9F939 		ldrsb	r3, [r6, #2553]
 4465 0038 AB42     		cmp	r3, r5
 4466 003a 34D0     		beq	.L829
 4467              	.L849:
 4468 003c 2046     		mov	r0, r4
 4469 003e 2946     		mov	r1, r5
 4470 0040 FFF7FEFF 		bl	_ZN6IoPort10SetPinModeEh7PinMode
 4471 0044 86F8F959 		strb	r5, [r6, #2553]
 4472 0048 0120     		movs	r0, #1
 4473 004a 70BD     		pop	{r4, r5, r6, pc}
 4474              	.L808:
 4475 004c A1F11404 		sub	r4, r1, #20
 4476 0050 A5B2     		uxth	r5, r4
 4477 0052 082D     		cmp	r5, #8
 4478 0054 13D8     		bhi	.L811
 4479 0056 2C25     		movs	r5, #44
 4480 0058 05FB0405 		mla	r5, r5, r4, r0
 4481 005c 95F8FA57 		ldrb	r5, [r5, #2042]	@ zero_extendqisi2
 4482 0060 FF2D     		cmp	r5, #255
 4483 0062 DDD1     		bne	.L844
 4484 0064 1629     		cmp	r1, #22
 4485 0066 4BD8     		bhi	.L847
 4486              	.L813:
 4487 0068 2C4D     		ldr	r5, .L851+4
 4488 006a 2C5D     		ldrb	r4, [r5, r4]	@ zero_extendqisi2
 4489 006c 1C70     		strb	r4, [r3]
 4490 006e D8E7     		b	.L810
 4491              	.L809:
 4492 0070 4418     		adds	r4, r0, r1
 4493 0072 0125     		movs	r5, #1
 4494 0074 94F8BC47 		ldrb	r4, [r4, #1980]	@ zero_extendqisi2
 4495 0078 1C70     		strb	r4, [r3]
 4496 007a 3570     		strb	r5, [r6]
 4497 007c D0E7     		b	.L844
 4498              	.L811:
 4499 007e A1F12804 		sub	r4, r1, #40
 4500 0082 0B2C     		cmp	r4, #11
 4501 0084 11D8     		bhi	.L815
 4502 0086 3AB3     		cbz	r2, .L816
 4503 0088 012A     		cmp	r2, #1
ARM GAS  C:\Users\THOMAS~1.CAM\AppData\Local\Temp\cco4TuUn.s 			page 80


 4504 008a 18D0     		beq	.L848
 4505              	.L814:
 4506 008c 1C78     		ldrb	r4, [r3]	@ zero_extendqisi2
 4507 008e FF2C     		cmp	r4, #255
 4508 0090 CBD1     		bne	.L822
 4509              	.L825:
 4510 0092 0020     		movs	r0, #0
 4511 0094 70BD     		pop	{r4, r5, r6, pc}
 4512              	.L845:
 4513 0096 3378     		ldrb	r3, [r6]	@ zero_extendqisi2
 4514 0098 B3B1     		cbz	r3, .L824
 4515 009a 4618     		adds	r6, r0, r1
 4516 009c 0425     		movs	r5, #4
 4517 009e 96F9F939 		ldrsb	r3, [r6, #2553]
 4518 00a2 AB42     		cmp	r3, r5
 4519 00a4 CAD1     		bne	.L849
 4520              	.L829:
 4521 00a6 0120     		movs	r0, #1
 4522 00a8 70BD     		pop	{r4, r5, r6, pc}
 4523              	.L815:
 4524 00aa A1F13C04 		sub	r4, r1, #60
 4525 00ae 032C     		cmp	r4, #3
 4526 00b0 17D8     		bhi	.L818
 4527 00b2 1B4C     		ldr	r4, .L851+8
 4528 00b4 0C44     		add	r4, r4, r1
 4529 00b6 14F83C4C 		ldrb	r4, [r4, #-60]	@ zero_extendqisi2
 4530 00ba 1C70     		strb	r4, [r3]
 4531 00bc B1E7     		b	.L810
 4532              	.L848:
 4533 00be 2C29     		cmp	r1, #44
 4534 00c0 0AD8     		bhi	.L816
 4535 00c2 1C78     		ldrb	r4, [r3]	@ zero_extendqisi2
 4536 00c4 FF2C     		cmp	r4, #255
 4537 00c6 E4D0     		beq	.L825
 4538              	.L824:
 4539 00c8 0325     		movs	r5, #3
 4540 00ca B2E7     		b	.L823
 4541              	.L846:
 4542 00cc 3378     		ldrb	r3, [r6]	@ zero_extendqisi2
 4543 00ce 002B     		cmp	r3, #0
 4544 00d0 0CBF     		ite	eq
 4545 00d2 0725     		moveq	r5, #7
 4546 00d4 0825     		movne	r5, #8
 4547 00d6 ACE7     		b	.L823
 4548              	.L816:
 4549 00d8 4418     		adds	r4, r0, r1
 4550 00da 94F80841 		ldrb	r4, [r4, #264]	@ zero_extendqisi2
 4551 00de 1C70     		strb	r4, [r3]
 4552 00e0 9FE7     		b	.L810
 4553              	.L818:
 4554 00e2 A1F16404 		sub	r4, r1, #100
 4555 00e6 032C     		cmp	r4, #3
 4556 00e8 0DD9     		bls	.L850
 4557 00ea A1F17804 		sub	r4, r1, #120
 4558 00ee 0F2C     		cmp	r4, #15
 4559 00f0 96D8     		bhi	.L844
 4560 00f2 032A     		cmp	r2, #3
ARM GAS  C:\Users\THOMAS~1.CAM\AppData\Local\Temp\cco4TuUn.s 			page 81


 4561 00f4 CAD0     		beq	.L814
 4562 00f6 01F16404 		add	r4, r1, #100
 4563 00fa E4B2     		uxtb	r4, r4
 4564 00fc 1C70     		strb	r4, [r3]
 4565 00fe 92E7     		b	.L820
 4566              	.L847:
 4567 0100 032A     		cmp	r2, #3
 4568 0102 B1D1     		bne	.L813
 4569 0104 C2E7     		b	.L814
 4570              	.L850:
 4571 0106 032A     		cmp	r2, #3
 4572 0108 C0D0     		beq	.L814
 4573 010a 064C     		ldr	r4, .L851+12
 4574 010c 0C44     		add	r4, r4, r1
 4575 010e 14F8644C 		ldrb	r4, [r4, #-100]	@ zero_extendqisi2
 4576 0112 1C70     		strb	r4, [r3]
 4577 0114 85E7     		b	.L810
 4578              	.L852:
 4579 0116 00BF     		.align	2
 4580              	.L851:
 4581 0118 00000000 		.word	reprap
 4582 011c 00000000 		.word	.LANCHOR6
 4583 0120 00000000 		.word	.LANCHOR9
 4584 0124 00000000 		.word	.LANCHOR10
 4585              		.size	_ZN8Platform14GetFirmwarePinEt9PinAccessRhRb, .-_ZN8Platform14GetFirmwarePinEt9PinAccessRhRb
 4586              		.section	.text._ZN8Platform28SetExtrusionAncilliaryPwmPinEtb,"ax",%progbits
 4587              		.align	1
 4588              		.p2align 2,,3
 4589              		.global	_ZN8Platform28SetExtrusionAncilliaryPwmPinEtb
 4590              		.syntax unified
 4591              		.thumb
 4592              		.thumb_func
 4593              		.fpu fpv4-sp-d16
 4594              		.type	_ZN8Platform28SetExtrusionAncilliaryPwmPinEtb, %function
 4595              	_ZN8Platform28SetExtrusionAncilliaryPwmPinEtb:
 4596              		@ args = 0, pretend = 0, frame = 0
 4597              		@ frame_needed = 0, uses_anonymous_args = 0
 4598              		@ link register save eliminated.
 4599 0000 1346     		mov	r3, r2
 4600 0002 00F51E60 		add	r0, r0, #2528
 4601 0006 0222     		movs	r2, #2
 4602 0008 FFF7FEBF 		b	_ZN6IoPort3SetEt9PinAccessb
 4603              		.size	_ZN8Platform28SetExtrusionAncilliaryPwmPinEtb, .-_ZN8Platform28SetExtrusionAncilliaryPwmPinE
 4604              		.section	.text._ZN8Platform13SetSpindlePwmEf,"ax",%progbits
 4605              		.align	1
 4606              		.p2align 2,,3
 4607              		.global	_ZN8Platform13SetSpindlePwmEf
 4608              		.syntax unified
 4609              		.thumb
 4610              		.thumb_func
 4611              		.fpu fpv4-sp-d16
 4612              		.type	_ZN8Platform13SetSpindlePwmEf, %function
 4613              	_ZN8Platform13SetSpindlePwmEf:
 4614              		@ args = 0, pretend = 0, frame = 0
 4615              		@ frame_needed = 0, uses_anonymous_args = 0
 4616 0000 38B5     		push	{r3, r4, r5, lr}
 4617 0002 B5EEC00A 		vcmpe.f32	s0, #0
ARM GAS  C:\Users\THOMAS~1.CAM\AppData\Local\Temp\cco4TuUn.s 			page 82


 4618 0006 F1EE10FA 		vmrs	APSR_nzcv, FPSCR
 4619 000a 2DED028B 		vpush.64	{d8}
 4620 000e 00F6E615 		addw	r5, r0, #2534
 4621 0012 B0EE408A 		vmov.f32	s16, s0
 4622 0016 00F6EC14 		addw	r4, r0, #2540
 4623 001a 0DDB     		blt	.L858
 4624 001c 2046     		mov	r0, r4
 4625 001e 9FED0D0A 		vldr.32	s0, .L860
 4626 0022 FFF7FEFF 		bl	_ZNK7PwmPort11WriteAnalogEf
 4627 0026 B0EE480A 		vmov.f32	s0, s16
 4628 002a BDEC028B 		vldm	sp!, {d8}
 4629 002e 2846     		mov	r0, r5
 4630 0030 BDE83840 		pop	{r3, r4, r5, lr}
 4631 0034 FFF7FEBF 		b	_ZNK7PwmPort11WriteAnalogEf
 4632              	.L858:
 4633 0038 2846     		mov	r0, r5
 4634 003a 9FED060A 		vldr.32	s0, .L860
 4635 003e FFF7FEFF 		bl	_ZNK7PwmPort11WriteAnalogEf
 4636 0042 B1EE480A 		vneg.f32	s0, s16
 4637 0046 BDEC028B 		vldm	sp!, {d8}
 4638 004a 2046     		mov	r0, r4
 4639 004c BDE83840 		pop	{r3, r4, r5, lr}
 4640 0050 FFF7FEBF 		b	_ZNK7PwmPort11WriteAnalogEf
 4641              	.L861:
 4642              		.align	2
 4643              	.L860:
 4644 0054 00000000 		.word	0
 4645              		.size	_ZN8Platform13SetSpindlePwmEf, .-_ZN8Platform13SetSpindlePwmEf
 4646              		.section	.text._ZN8Platform11SetLaserPwmEf,"ax",%progbits
 4647              		.align	1
 4648              		.p2align 2,,3
 4649              		.global	_ZN8Platform11SetLaserPwmEf
 4650              		.syntax unified
 4651              		.thumb
 4652              		.thumb_func
 4653              		.fpu fpv4-sp-d16
 4654              		.type	_ZN8Platform11SetLaserPwmEf, %function
 4655              	_ZN8Platform11SetLaserPwmEf:
 4656              		@ args = 0, pretend = 0, frame = 0
 4657              		@ frame_needed = 0, uses_anonymous_args = 0
 4658              		@ link register save eliminated.
 4659 0000 00F6F210 		addw	r0, r0, #2546
 4660 0004 FFF7FEBF 		b	_ZNK7PwmPort11WriteAnalogEf
 4661              		.size	_ZN8Platform11SetLaserPwmEf, .-_ZN8Platform11SetLaserPwmEf
 4662              		.section	.text._ZN8Platform14SetSpindlePinsEttb,"ax",%progbits
 4663              		.align	1
 4664              		.p2align 2,,3
 4665              		.global	_ZN8Platform14SetSpindlePinsEttb
 4666              		.syntax unified
 4667              		.thumb
 4668              		.thumb_func
 4669              		.fpu fpv4-sp-d16
 4670              		.type	_ZN8Platform14SetSpindlePinsEttb, %function
 4671              	_ZN8Platform14SetSpindlePinsEttb:
 4672              		@ args = 0, pretend = 0, frame = 0
 4673              		@ frame_needed = 0, uses_anonymous_args = 0
 4674 0000 F8B5     		push	{r3, r4, r5, r6, r7, lr}
ARM GAS  C:\Users\THOMAS~1.CAM\AppData\Local\Temp\cco4TuUn.s 			page 83


 4675 0002 0446     		mov	r4, r0
 4676 0004 1646     		mov	r6, r2
 4677 0006 00F6E610 		addw	r0, r0, #2534
 4678 000a 0222     		movs	r2, #2
 4679 000c 1F46     		mov	r7, r3
 4680 000e FFF7FEFF 		bl	_ZN6IoPort3SetEt9PinAccessb
 4681 0012 4FF6FF73 		movw	r3, #65535
 4682 0016 9E42     		cmp	r6, r3
 4683 0018 0546     		mov	r5, r0
 4684 001a 04F6EC10 		addw	r0, r4, #2540
 4685 001e 08D0     		beq	.L867
 4686 0020 3B46     		mov	r3, r7
 4687 0022 3146     		mov	r1, r6
 4688 0024 0222     		movs	r2, #2
 4689 0026 FFF7FEFF 		bl	_ZN6IoPort3SetEt9PinAccessb
 4690 002a 002D     		cmp	r5, #0
 4691 002c 08BF     		it	eq
 4692 002e 0020     		moveq	r0, #0
 4693 0030 F8BD     		pop	{r3, r4, r5, r6, r7, pc}
 4694              	.L867:
 4695 0032 FFF7FEFF 		bl	_ZN6IoPort5ClearEv
 4696 0036 2846     		mov	r0, r5
 4697 0038 F8BD     		pop	{r3, r4, r5, r6, r7, pc}
 4698              		.size	_ZN8Platform14SetSpindlePinsEttb, .-_ZN8Platform14SetSpindlePinsEttb
 4699 003a 00BF     		.section	.text._ZNK8Platform14GetSpindlePinsERtS0_Rb,"ax",%progbits
 4700              		.align	1
 4701              		.p2align 2,,3
 4702              		.global	_ZNK8Platform14GetSpindlePinsERtS0_Rb
 4703              		.syntax unified
 4704              		.thumb
 4705              		.thumb_func
 4706              		.fpu fpv4-sp-d16
 4707              		.type	_ZNK8Platform14GetSpindlePinsERtS0_Rb, %function
 4708              	_ZNK8Platform14GetSpindlePinsERtS0_Rb:
 4709              		@ args = 0, pretend = 0, frame = 0
 4710              		@ frame_needed = 0, uses_anonymous_args = 0
 4711              		@ link register save eliminated.
 4712 0000 30B4     		push	{r4, r5}
 4713 0002 B0F8E649 		ldrh	r4, [r0, #2534]
 4714 0006 90F8E959 		ldrb	r5, [r0, #2537]	@ zero_extendqisi2
 4715 000a 1D70     		strb	r5, [r3]
 4716 000c 0C80     		strh	r4, [r1]	@ movhi
 4717 000e B0F8EC39 		ldrh	r3, [r0, #2540]
 4718 0012 1380     		strh	r3, [r2]	@ movhi
 4719 0014 30BC     		pop	{r4, r5}
 4720 0016 7047     		bx	lr
 4721              		.size	_ZNK8Platform14GetSpindlePinsERtS0_Rb, .-_ZNK8Platform14GetSpindlePinsERtS0_Rb
 4722              		.section	.text._ZN8Platform22SetSpindlePwmFrequencyEf,"ax",%progbits
 4723              		.align	1
 4724              		.p2align 2,,3
 4725              		.global	_ZN8Platform22SetSpindlePwmFrequencyEf
 4726              		.syntax unified
 4727              		.thumb
 4728              		.thumb_func
 4729              		.fpu fpv4-sp-d16
 4730              		.type	_ZN8Platform22SetSpindlePwmFrequencyEf, %function
 4731              	_ZN8Platform22SetSpindlePwmFrequencyEf:
ARM GAS  C:\Users\THOMAS~1.CAM\AppData\Local\Temp\cco4TuUn.s 			page 84


 4732              		@ args = 0, pretend = 0, frame = 0
 4733              		@ frame_needed = 0, uses_anonymous_args = 0
 4734 0000 10B5     		push	{r4, lr}
 4735 0002 2DED028B 		vpush.64	{d8}
 4736 0006 0446     		mov	r4, r0
 4737 0008 B0EE408A 		vmov.f32	s16, s0
 4738 000c 00F6E610 		addw	r0, r0, #2534
 4739 0010 FFF7FEFF 		bl	_ZN7PwmPort12SetFrequencyEf
 4740 0014 B0EE480A 		vmov.f32	s0, s16
 4741 0018 BDEC028B 		vldm	sp!, {d8}
 4742 001c 04F6EC10 		addw	r0, r4, #2540
 4743 0020 BDE81040 		pop	{r4, lr}
 4744 0024 FFF7FEBF 		b	_ZN7PwmPort12SetFrequencyEf
 4745              		.size	_ZN8Platform22SetSpindlePwmFrequencyEf, .-_ZN8Platform22SetSpindlePwmFrequencyEf
 4746              		.section	.text._ZN8Platform11SetLaserPinEtb,"ax",%progbits
 4747              		.align	1
 4748              		.p2align 2,,3
 4749              		.global	_ZN8Platform11SetLaserPinEtb
 4750              		.syntax unified
 4751              		.thumb
 4752              		.thumb_func
 4753              		.fpu fpv4-sp-d16
 4754              		.type	_ZN8Platform11SetLaserPinEtb, %function
 4755              	_ZN8Platform11SetLaserPinEtb:
 4756              		@ args = 0, pretend = 0, frame = 0
 4757              		@ frame_needed = 0, uses_anonymous_args = 0
 4758              		@ link register save eliminated.
 4759 0000 1346     		mov	r3, r2
 4760 0002 00F6F210 		addw	r0, r0, #2546
 4761 0006 0222     		movs	r2, #2
 4762 0008 FFF7FEBF 		b	_ZN6IoPort3SetEt9PinAccessb
 4763              		.size	_ZN8Platform11SetLaserPinEtb, .-_ZN8Platform11SetLaserPinEtb
 4764              		.section	.text._ZN8Platform20SetLaserPwmFrequencyEf,"ax",%progbits
 4765              		.align	1
 4766              		.p2align 2,,3
 4767              		.global	_ZN8Platform20SetLaserPwmFrequencyEf
 4768              		.syntax unified
 4769              		.thumb
 4770              		.thumb_func
 4771              		.fpu fpv4-sp-d16
 4772              		.type	_ZN8Platform20SetLaserPwmFrequencyEf, %function
 4773              	_ZN8Platform20SetLaserPwmFrequencyEf:
 4774              		@ args = 0, pretend = 0, frame = 0
 4775              		@ frame_needed = 0, uses_anonymous_args = 0
 4776              		@ link register save eliminated.
 4777 0000 00F6F210 		addw	r0, r0, #2546
 4778 0004 FFF7FEBF 		b	_ZN7PwmPort12SetFrequencyEf
 4779              		.size	_ZN8Platform20SetLaserPwmFrequencyEf, .-_ZN8Platform20SetLaserPwmFrequencyEf
 4780              		.section	.text._ZNK8Platform13GetEndstopPinEi,"ax",%progbits
 4781              		.align	1
 4782              		.p2align 2,,3
 4783              		.global	_ZNK8Platform13GetEndstopPinEi
 4784              		.syntax unified
 4785              		.thumb
 4786              		.thumb_func
 4787              		.fpu fpv4-sp-d16
 4788              		.type	_ZNK8Platform13GetEndstopPinEi, %function
ARM GAS  C:\Users\THOMAS~1.CAM\AppData\Local\Temp\cco4TuUn.s 			page 85


 4789              	_ZNK8Platform13GetEndstopPinEi:
 4790              		@ args = 0, pretend = 0, frame = 0
 4791              		@ frame_needed = 0, uses_anonymous_args = 0
 4792              		@ link register save eliminated.
 4793 0000 0B29     		cmp	r1, #11
 4794 0002 9ABF     		itte	ls
 4795 0004 4018     		addls	r0, r0, r1
 4796 0006 90F83001 		ldrbls	r0, [r0, #304]	@ zero_extendqisi2
 4797 000a FF20     		movhi	r0, #255
 4798 000c 7047     		bx	lr
 4799              		.size	_ZNK8Platform13GetEndstopPinEi, .-_ZNK8Platform13GetEndstopPinEi
 4800 000e 00BF     		.section	.text._ZN8Platform14SetAxisMaximumEjfb,"ax",%progbits
 4801              		.align	1
 4802              		.p2align 2,,3
 4803              		.global	_ZN8Platform14SetAxisMaximumEjfb
 4804              		.syntax unified
 4805              		.thumb
 4806              		.thumb_func
 4807              		.fpu fpv4-sp-d16
 4808              		.type	_ZN8Platform14SetAxisMaximumEjfb, %function
 4809              	_ZN8Platform14SetAxisMaximumEjfb:
 4810              		@ args = 0, pretend = 0, frame = 0
 4811              		@ frame_needed = 0, uses_anonymous_args = 0
 4812              		@ link register save eliminated.
 4813 0000 01F5E373 		add	r3, r1, #454
 4814 0004 00EB8303 		add	r3, r0, r3, lsl #2
 4815 0008 83ED010A 		vstr.32	s0, [r3, #4]
 4816 000c 3AB1     		cbz	r2, .L877
 4817 000e D0F86837 		ldr	r3, [r0, #1896]
 4818 0012 0122     		movs	r2, #1
 4819 0014 02FA01F1 		lsl	r1, r2, r1
 4820 0018 0B43     		orrs	r3, r3, r1
 4821 001a C0F86837 		str	r3, [r0, #1896]
 4822              	.L877:
 4823 001e 7047     		bx	lr
 4824              		.size	_ZN8Platform14SetAxisMaximumEjfb, .-_ZN8Platform14SetAxisMaximumEjfb
 4825              		.section	.text._ZN8Platform14SetAxisMinimumEjfb,"ax",%progbits
 4826              		.align	1
 4827              		.p2align 2,,3
 4828              		.global	_ZN8Platform14SetAxisMinimumEjfb
 4829              		.syntax unified
 4830              		.thumb
 4831              		.thumb_func
 4832              		.fpu fpv4-sp-d16
 4833              		.type	_ZN8Platform14SetAxisMinimumEjfb, %function
 4834              	_ZN8Platform14SetAxisMinimumEjfb:
 4835              		@ args = 0, pretend = 0, frame = 0
 4836              		@ frame_needed = 0, uses_anonymous_args = 0
 4837              		@ link register save eliminated.
 4838 0000 01F5E873 		add	r3, r1, #464
 4839 0004 00EB8303 		add	r3, r0, r3, lsl #2
 4840 0008 83ED000A 		vstr.32	s0, [r3]
 4841 000c 3AB1     		cbz	r2, .L882
 4842 000e D0F86437 		ldr	r3, [r0, #1892]
 4843 0012 0122     		movs	r2, #1
 4844 0014 02FA01F1 		lsl	r1, r2, r1
 4845 0018 0B43     		orrs	r3, r3, r1
ARM GAS  C:\Users\THOMAS~1.CAM\AppData\Local\Temp\cco4TuUn.s 			page 86


 4846 001a C0F86437 		str	r3, [r0, #1892]
 4847              	.L882:
 4848 001e 7047     		bx	lr
 4849              		.size	_ZN8Platform14SetAxisMinimumEjfb, .-_ZN8Platform14SetAxisMinimumEjfb
 4850              		.section	.text._ZNK8Platform18GetMcuTemperaturesERfS0_S0_,"ax",%progbits
 4851              		.align	1
 4852              		.p2align 2,,3
 4853              		.global	_ZNK8Platform18GetMcuTemperaturesERfS0_S0_
 4854              		.syntax unified
 4855              		.thumb
 4856              		.thumb_func
 4857              		.fpu fpv4-sp-d16
 4858              		.type	_ZNK8Platform18GetMcuTemperaturesERfS0_S0_, %function
 4859              	_ZNK8Platform18GetMcuTemperaturesERfS0_S0_:
 4860              		@ args = 0, pretend = 0, frame = 0
 4861              		@ frame_needed = 0, uses_anonymous_args = 0
 4862              		@ link register save eliminated.
 4863 0000 10B4     		push	{r4}
 4864 0002 D0F80847 		ldr	r4, [r0, #1800]
 4865 0006 9FED247A 		vldr.32	s14, .L889
 4866 000a 9FED246A 		vldr.32	s12, .L889+4
 4867 000e DFED246A 		vldr.32	s13, .L889+8
 4868 0012 05EE904A 		vmov	s11, r4	@ int
 4869 0016 D0F81447 		ldr	r4, [r0, #1812]
 4870 001a 07EE904A 		vmov	s15, r4	@ int
 4871 001e B8EE675A 		vcvt.f32.u32	s10, s15
 4872 0022 F0EE474A 		vmov.f32	s9, s14
 4873 0026 E5EE064A 		vfma.f32	s9, s10, s12
 4874 002a 00F5E364 		add	r4, r0, #1816
 4875 002e F3EE0B7A 		vmov.f32	s15, #2.7e+1
 4876 0032 B0EE645A 		vmov.f32	s10, s9
 4877 0036 F0EE674A 		vmov.f32	s9, s15
 4878 003a E5EE264A 		vfma.f32	s9, s10, s13
 4879 003e F8EE655A 		vcvt.f32.u32	s11, s11
 4880 0042 B0EE645A 		vmov.f32	s10, s9
 4881 0046 F0EE474A 		vmov.f32	s9, s14
 4882 004a E5EE864A 		vfma.f32	s9, s11, s12
 4883 004e F0EE645A 		vmov.f32	s11, s9
 4884 0052 D4ED004A 		vldr.32	s9, [r4]
 4885 0056 35EE245A 		vadd.f32	s10, s10, s9
 4886 005a F0EE674A 		vmov.f32	s9, s15
 4887 005e E5EEA64A 		vfma.f32	s9, s11, s13
 4888 0062 81ED005A 		vstr.32	s10, [r1]
 4889 0066 94ED005A 		vldr.32	s10, [r4]
 4890 006a 74EE855A 		vadd.f32	s11, s9, s10
 4891 006e C2ED005A 		vstr.32	s11, [r2]
 4892 0072 D0F81027 		ldr	r2, [r0, #1808]
 4893 0076 94ED005A 		vldr.32	s10, [r4]
 4894 007a 5DF8044B 		ldr	r4, [sp], #4
 4895 007e 05EE902A 		vmov	s11, r2	@ int
 4896 0082 F8EE655A 		vcvt.f32.u32	s11, s11
 4897 0086 A5EE867A 		vfma.f32	s14, s11, s12
 4898 008a E7EE267A 		vfma.f32	s15, s14, s13
 4899 008e 77EE857A 		vadd.f32	s15, s15, s10
 4900 0092 C3ED007A 		vstr.32	s15, [r3]
 4901 0096 7047     		bx	lr
 4902              	.L890:
ARM GAS  C:\Users\THOMAS~1.CAM\AppData\Local\Temp\cco4TuUn.s 			page 87


 4903              		.align	2
 4904              	.L889:
 4905 0098 EC51B8BF 		.word	-1078439444
 4906 009c 3333D337 		.word	936588083
 4907 00a0 16C45443 		.word	1129628694
 4908              		.size	_ZNK8Platform18GetMcuTemperaturesERfS0_S0_, .-_ZNK8Platform18GetMcuTemperaturesERfS0_S0_
 4909              		.section	.text._ZNK8Platform16GetPowerVoltagesERfS0_S0_,"ax",%progbits
 4910              		.align	1
 4911              		.p2align 2,,3
 4912              		.global	_ZNK8Platform16GetPowerVoltagesERfS0_S0_
 4913              		.syntax unified
 4914              		.thumb
 4915              		.thumb_func
 4916              		.fpu fpv4-sp-d16
 4917              		.type	_ZNK8Platform16GetPowerVoltagesERfS0_S0_, %function
 4918              	_ZNK8Platform16GetPowerVoltagesERfS0_S0_:
 4919              		@ args = 0, pretend = 0, frame = 0
 4920              		@ frame_needed = 0, uses_anonymous_args = 0
 4921              		@ link register save eliminated.
 4922 0000 B0F8AEC9 		ldrh	ip, [r0, #2478]
 4923 0004 DFED0F6A 		vldr.32	s13, .L892
 4924 0008 07EE10CA 		vmov	s14, ip	@ int
 4925 000c B8EEC77A 		vcvt.f32.s32	s14, s14
 4926 0010 27EE267A 		vmul.f32	s14, s14, s13
 4927 0014 81ED007A 		vstr.32	s14, [r1]
 4928 0018 B0F8AA19 		ldrh	r1, [r0, #2474]
 4929 001c 07EE101A 		vmov	s14, r1	@ int
 4930 0020 B8EEC77A 		vcvt.f32.s32	s14, s14
 4931 0024 27EE267A 		vmul.f32	s14, s14, s13
 4932 0028 82ED007A 		vstr.32	s14, [r2]
 4933 002c B0F8AC29 		ldrh	r2, [r0, #2476]
 4934 0030 07EE902A 		vmov	s15, r2	@ int
 4935 0034 F8EEE77A 		vcvt.f32.s32	s15, s15
 4936 0038 67EEA67A 		vmul.f32	s15, s15, s13
 4937 003c C3ED007A 		vstr.32	s15, [r3]
 4938 0040 7047     		bx	lr
 4939              	.L893:
 4940 0042 00BF     		.align	2
 4941              	.L892:
 4942 0044 3333113C 		.word	1007760179
 4943              		.size	_ZNK8Platform16GetPowerVoltagesERfS0_S0_, .-_ZNK8Platform16GetPowerVoltagesERfS0_S0_
 4944              		.section	.text._ZNK8Platform22GetCurrentPowerVoltageEv,"ax",%progbits
 4945              		.align	1
 4946              		.p2align 2,,3
 4947              		.global	_ZNK8Platform22GetCurrentPowerVoltageEv
 4948              		.syntax unified
 4949              		.thumb
 4950              		.thumb_func
 4951              		.fpu fpv4-sp-d16
 4952              		.type	_ZNK8Platform22GetCurrentPowerVoltageEv, %function
 4953              	_ZNK8Platform22GetCurrentPowerVoltageEv:
 4954              		@ args = 0, pretend = 0, frame = 0
 4955              		@ frame_needed = 0, uses_anonymous_args = 0
 4956              		@ link register save eliminated.
 4957 0000 B0F8AA39 		ldrh	r3, [r0, #2474]
 4958 0004 DFED047A 		vldr.32	s15, .L895
 4959 0008 00EE103A 		vmov	s0, r3	@ int
ARM GAS  C:\Users\THOMAS~1.CAM\AppData\Local\Temp\cco4TuUn.s 			page 88


 4960 000c B8EEC00A 		vcvt.f32.s32	s0, s0
 4961 0010 20EE270A 		vmul.f32	s0, s0, s15
 4962 0014 7047     		bx	lr
 4963              	.L896:
 4964 0016 00BF     		.align	2
 4965              	.L895:
 4966 0018 3333113C 		.word	1007760179
 4967              		.size	_ZNK8Platform22GetCurrentPowerVoltageEv, .-_ZNK8Platform22GetCurrentPowerVoltageEv
 4968              		.section	.text._ZNK8Platform24GetTmcDriversTemperatureEj,"ax",%progbits
 4969              		.align	1
 4970              		.p2align 2,,3
 4971              		.global	_ZNK8Platform24GetTmcDriversTemperatureEj
 4972              		.syntax unified
 4973              		.thumb
 4974              		.thumb_func
 4975              		.fpu fpv4-sp-d16
 4976              		.type	_ZNK8Platform24GetTmcDriversTemperatureEj, %function
 4977              	_ZNK8Platform24GetTmcDriversTemperatureEj:
 4978              		@ args = 0, pretend = 0, frame = 0
 4979              		@ frame_needed = 0, uses_anonymous_args = 0
 4980              		@ link register save eliminated.
 4981 0000 1F23     		movs	r3, #31
 4982 0002 01EB8101 		add	r1, r1, r1, lsl #2
 4983 0006 03FA01F1 		lsl	r1, r3, r1
 4984 000a D0F8C433 		ldr	r3, [r0, #964]
 4985 000e 89B2     		uxth	r1, r1
 4986 0010 1942     		tst	r1, r3
 4987 0012 0AD1     		bne	.L899
 4988 0014 D0F8C833 		ldr	r3, [r0, #968]
 4989 0018 DFED057A 		vldr.32	s15, .L901
 4990 001c 9FED050A 		vldr.32	s0, .L901+4
 4991 0020 1942     		tst	r1, r3
 4992 0022 08BF     		it	eq
 4993 0024 B0EE670A 		vmoveq.f32	s0, s15
 4994 0028 7047     		bx	lr
 4995              	.L899:
 4996 002a 9FED030A 		vldr.32	s0, .L901+8
 4997 002e 7047     		bx	lr
 4998              	.L902:
 4999              		.align	2
 5000              	.L901:
 5001 0030 00000000 		.word	0
 5002 0034 0000C842 		.word	1120403456
 5003 0038 00001643 		.word	1125515264
 5004              		.size	_ZNK8Platform24GetTmcDriversTemperatureEj, .-_ZNK8Platform24GetTmcDriversTemperatureEj
 5005              		.section	.text._ZN8Platform23ConfigureStallDetectionER11GCodeBufferRK9StringRef,"ax",%progbits
 5006              		.align	1
 5007              		.p2align 2,,3
 5008              		.global	_ZN8Platform23ConfigureStallDetectionER11GCodeBufferRK9StringRef
 5009              		.syntax unified
 5010              		.thumb
 5011              		.thumb_func
 5012              		.fpu fpv4-sp-d16
 5013              		.type	_ZN8Platform23ConfigureStallDetectionER11GCodeBufferRK9StringRef, %function
 5014              	_ZN8Platform23ConfigureStallDetectionER11GCodeBufferRK9StringRef:
 5015              		@ args = 0, pretend = 0, frame = 56
 5016              		@ frame_needed = 0, uses_anonymous_args = 0
ARM GAS  C:\Users\THOMAS~1.CAM\AppData\Local\Temp\cco4TuUn.s 			page 89


 5017 0000 2DE9F04F 		push	{r4, r5, r6, r7, r8, r9, r10, fp, lr}
 5018 0004 0D46     		mov	r5, r1
 5019 0006 8FB0     		sub	sp, sp, #60
 5020 0008 0646     		mov	r6, r0
 5021 000a 5021     		movs	r1, #80
 5022 000c 2846     		mov	r0, r5
 5023 000e 9146     		mov	r9, r2
 5024 0010 FFF7FEFF 		bl	_ZN11GCodeBuffer4SeenEc
 5025 0014 0746     		mov	r7, r0
 5026 0016 0028     		cmp	r0, #0
 5027 0018 40F0C980 		bne	.L998
 5028 001c 0446     		mov	r4, r0
 5029              	.L904:
 5030 001e DFF85483 		ldr	r8, .L1006+20
 5031 0022 D8F81830 		ldr	r3, [r8, #24]
 5032 0026 D3F89422 		ldr	r2, [r3, #660]
 5033 002a 82B3     		cbz	r2, .L910
 5034 002c 4FF0000B 		mov	fp, #0
 5035 0030 06F53E7A 		add	r10, r6, #760
 5036 0034 0127     		movs	r7, #1
 5037 0036 07E0     		b	.L913
 5038              	.L911:
 5039 0038 D8F81830 		ldr	r3, [r8, #24]
 5040 003c D3F89422 		ldr	r2, [r3, #660]
 5041 0040 0BF1010B 		add	fp, fp, #1
 5042 0044 5A45     		cmp	r2, fp
 5043 0046 22D9     		bls	.L910
 5044              	.L913:
 5045 0048 5B44     		add	r3, r3, fp
 5046 004a 2846     		mov	r0, r5
 5047 004c 93F85614 		ldrb	r1, [r3, #1110]	@ zero_extendqisi2
 5048 0050 FFF7FEFF 		bl	_ZN11GCodeBuffer4SeenEc
 5049 0054 0028     		cmp	r0, #0
 5050 0056 EFD0     		beq	.L911
 5051 0058 4FEACB02 		lsl	r2, fp, #3
 5052 005c B118     		adds	r1, r6, r2
 5053 005e D1F8F432 		ldr	r3, [r1, #756]
 5054 0062 002B     		cmp	r3, #0
 5055 0064 E8D0     		beq	.L911
 5056 0066 1944     		add	r1, r1, r3
 5057 0068 01F53E71 		add	r1, r1, #760
 5058 006c 5244     		add	r2, r2, r10
 5059              	.L912:
 5060 006e 12F8013B 		ldrb	r3, [r2], #1	@ zero_extendqisi2
 5061 0072 07FA03F3 		lsl	r3, r7, r3
 5062 0076 9142     		cmp	r1, r2
 5063 0078 44EA0304 		orr	r4, r4, r3
 5064 007c F7D1     		bne	.L912
 5065 007e D8F81830 		ldr	r3, [r8, #24]
 5066 0082 D3F89422 		ldr	r2, [r3, #660]
 5067 0086 0BF1010B 		add	fp, fp, #1
 5068 008a 5A45     		cmp	r2, fp
 5069 008c DCD8     		bhi	.L913
 5070              	.L910:
 5071 008e 5321     		movs	r1, #83
 5072 0090 2846     		mov	r0, r5
 5073 0092 FFF7FEFF 		bl	_ZN11GCodeBuffer4SeenEc
ARM GAS  C:\Users\THOMAS~1.CAM\AppData\Local\Temp\cco4TuUn.s 			page 90


 5074 0096 0746     		mov	r7, r0
 5075 0098 0028     		cmp	r0, #0
 5076 009a 40F0B980 		bne	.L999
 5077              	.L914:
 5078 009e 4621     		movs	r1, #70
 5079 00a0 2846     		mov	r0, r5
 5080 00a2 FFF7FEFF 		bl	_ZN11GCodeBuffer4SeenEc
 5081 00a6 8246     		mov	r10, r0
 5082 00a8 0028     		cmp	r0, #0
 5083 00aa 40F00281 		bne	.L1000
 5084              	.L918:
 5085 00ae 4821     		movs	r1, #72
 5086 00b0 2846     		mov	r0, r5
 5087 00b2 FFF7FEFF 		bl	_ZN11GCodeBuffer4SeenEc
 5088 00b6 8246     		mov	r10, r0
 5089 00b8 0028     		cmp	r0, #0
 5090 00ba 40F0DF80 		bne	.L1001
 5091              	.L922:
 5092 00be 5421     		movs	r1, #84
 5093 00c0 2846     		mov	r0, r5
 5094 00c2 FFF7FEFF 		bl	_ZN11GCodeBuffer4SeenEc
 5095 00c6 0028     		cmp	r0, #0
 5096 00c8 40F0BE80 		bne	.L1002
 5097 00cc 5221     		movs	r1, #82
 5098 00ce 2846     		mov	r0, r5
 5099 00d0 FFF7FEFF 		bl	_ZN11GCodeBuffer4SeenEc
 5100 00d4 0028     		cmp	r0, #0
 5101 00d6 49D1     		bne	.L941
 5102 00d8 002F     		cmp	r7, #0
 5103 00da 63D1     		bne	.L935
 5104 00dc D6F8C033 		ldr	r3, [r6, #960]
 5105 00e0 002C     		cmp	r4, #0
 5106 00e2 00F00681 		beq	.L1003
 5107              	.L936:
 5108 00e6 002B     		cmp	r3, #0
 5109 00e8 5CD0     		beq	.L935
 5110 00ea DFF88C82 		ldr	r8, .L1006+24
 5111 00ee 9C4D     		ldr	r5, .L1006
 5112 00f0 DFF888A2 		ldr	r10, .L1006+28
 5113 00f4 4FF0000B 		mov	fp, #0
 5114 00f8 1CE0     		b	.L940
 5115              	.L1005:
 5116 00fa D6F8E433 		ldr	r3, [r6, #996]
 5117 00fe 9948     		ldr	r0, .L1006+4
 5118 0100 9949     		ldr	r1, .L1006+8
 5119 0102 9A4A     		ldr	r2, .L1006+12
 5120 0104 23FA0BF3 		lsr	r3, r3, fp
 5121 0108 DB07     		lsls	r3, r3, #31
 5122 010a 08D4     		bmi	.L939
 5123 010c D6F8E033 		ldr	r3, [r6, #992]
 5124 0110 23FA0BF3 		lsr	r3, r3, fp
 5125 0114 13F0010F 		tst	r3, #1
 5126 0118 0CBF     		ite	eq
 5127 011a 0246     		moveq	r2, r0
 5128 011c 0A46     		movne	r2, r1
 5129              	.L939:
 5130 011e 2946     		mov	r1, r5
ARM GAS  C:\Users\THOMAS~1.CAM\AppData\Local\Temp\cco4TuUn.s 			page 91


 5131 0120 4846     		mov	r0, r9
 5132 0122 FFF7FEFF 		bl	_ZNK9StringRef4catfEPKcz
 5133 0126 D6F8C033 		ldr	r3, [r6, #960]
 5134 012a 0127     		movs	r7, #1
 5135              	.L937:
 5136 012c 0BF1010B 		add	fp, fp, #1
 5137 0130 5B45     		cmp	r3, fp
 5138 0132 37D9     		bls	.L935
 5139              	.L940:
 5140 0134 24FA0BF2 		lsr	r2, r4, fp
 5141 0138 D107     		lsls	r1, r2, #31
 5142 013a F7D5     		bpl	.L937
 5143 013c 002F     		cmp	r7, #0
 5144 013e 62D1     		bne	.L1004
 5145              	.L938:
 5146 0140 5A46     		mov	r2, fp
 5147 0142 4146     		mov	r1, r8
 5148 0144 4846     		mov	r0, r9
 5149 0146 FFF7FEFF 		bl	_ZNK9StringRef4catfEPKcz
 5150 014a 4946     		mov	r1, r9
 5151 014c 5846     		mov	r0, fp
 5152 014e FFF7FEFF 		bl	_ZN12SmartDrivers17AppendStallConfigEjRK9StringRef
 5153 0152 D6F8E833 		ldr	r3, [r6, #1000]
 5154 0156 23FA0BF3 		lsr	r3, r3, fp
 5155 015a DA07     		lsls	r2, r3, #31
 5156 015c CDD5     		bpl	.L1005
 5157 015e 5246     		mov	r2, r10
 5158 0160 DDE7     		b	.L939
 5159              	.L927:
 5160 0162 5221     		movs	r1, #82
 5161 0164 2846     		mov	r0, r5
 5162 0166 FFF7FEFF 		bl	_ZN11GCodeBuffer4SeenEc
 5163 016a D8B1     		cbz	r0, .L935
 5164              	.L941:
 5165 016c 2846     		mov	r0, r5
 5166 016e FFF7FEFF 		bl	_ZN11GCodeBuffer9GetIValueEv
 5167 0172 0228     		cmp	r0, #2
 5168 0174 6FEA0403 		mvn	r3, r4
 5169 0178 00F0CD80 		beq	.L932
 5170 017c 0328     		cmp	r0, #3
 5171 017e 00F0BC80 		beq	.L933
 5172 0182 0128     		cmp	r0, #1
 5173 0184 00F0D880 		beq	.L934
 5174 0188 06F57870 		add	r0, r6, #992
 5175 018c 07C8     		ldm	r0, {r0, r1, r2}
 5176 018e 1840     		ands	r0, r0, r3
 5177 0190 1940     		ands	r1, r1, r3
 5178 0192 1340     		ands	r3, r3, r2
 5179 0194 C6F8E003 		str	r0, [r6, #992]
 5180 0198 C6F8E413 		str	r1, [r6, #996]
 5181 019c C6F8E833 		str	r3, [r6, #1000]
 5182 01a0 0027     		movs	r7, #0
 5183 01a2 00E0     		b	.L996
 5184              	.L935:
 5185 01a4 0027     		movs	r7, #0
 5186              	.L996:
 5187 01a6 3846     		mov	r0, r7
ARM GAS  C:\Users\THOMAS~1.CAM\AppData\Local\Temp\cco4TuUn.s 			page 92


 5188 01a8 0FB0     		add	sp, sp, #60
 5189              		@ sp needed
 5190 01aa BDE8F08F 		pop	{r4, r5, r6, r7, r8, r9, r10, fp, pc}
 5191              	.L998:
 5192 01ae 0EAA     		add	r2, sp, #56
 5193 01b0 0C23     		movs	r3, #12
 5194 01b2 0DF10808 		add	r8, sp, #8
 5195 01b6 42F8343D 		str	r3, [r2, #-52]!
 5196 01ba 4146     		mov	r1, r8
 5197 01bc 0023     		movs	r3, #0
 5198 01be 2846     		mov	r0, r5
 5199 01c0 FFF7FEFF 		bl	_ZN11GCodeBuffer16GetUnsignedArrayEPmRjb
 5200 01c4 0199     		ldr	r1, [sp, #4]
 5201 01c6 0029     		cmp	r1, #0
 5202 01c8 00F0C780 		beq	.L943
 5203 01cc 029A     		ldr	r2, [sp, #8]
 5204 01ce D6F8C003 		ldr	r0, [r6, #960]
 5205 01d2 9042     		cmp	r0, r2
 5206 01d4 0FD9     		bls	.L906
 5207 01d6 0024     		movs	r4, #0
 5208 01d8 2346     		mov	r3, r4
 5209 01da 4FF0010C 		mov	ip, #1
 5210              	.L907:
 5211 01de 0133     		adds	r3, r3, #1
 5212 01e0 0CFA02F2 		lsl	r2, ip, r2
 5213 01e4 8B42     		cmp	r3, r1
 5214 01e6 44EA0204 		orr	r4, r4, r2
 5215 01ea 3FF418AF 		beq	.L904
 5216 01ee 58F82320 		ldr	r2, [r8, r3, lsl #2]
 5217 01f2 8242     		cmp	r2, r0
 5218 01f4 F3D3     		bcc	.L907
 5219              	.L906:
 5220 01f6 4846     		mov	r0, r9
 5221 01f8 5D49     		ldr	r1, .L1006+16
 5222 01fa FFF7FEFF 		bl	_ZNK9StringRef6printfEPKcz
 5223 01fe 3846     		mov	r0, r7
 5224 0200 0FB0     		add	sp, sp, #60
 5225              		@ sp needed
 5226 0202 BDE8F08F 		pop	{r4, r5, r6, r7, r8, r9, r10, fp, pc}
 5227              	.L1004:
 5228 0206 0A21     		movs	r1, #10
 5229 0208 4846     		mov	r0, r9
 5230 020a FFF7FEFF 		bl	_ZNK9StringRef3catEc
 5231 020e 97E7     		b	.L938
 5232              	.L999:
 5233 0210 2846     		mov	r0, r5
 5234 0212 FFF7FEFF 		bl	_ZN11GCodeBuffer9GetIValueEv
 5235 0216 D6F8C033 		ldr	r3, [r6, #960]
 5236 021a 8246     		mov	r10, r0
 5237 021c 002B     		cmp	r3, #0
 5238 021e 3FF43EAF 		beq	.L914
 5239 0222 4FF00008 		mov	r8, #0
 5240 0226 04E0     		b	.L915
 5241              	.L916:
 5242 0228 08F10108 		add	r8, r8, #1
 5243 022c 4345     		cmp	r3, r8
 5244 022e 7FF636AF 		bls	.L914
ARM GAS  C:\Users\THOMAS~1.CAM\AppData\Local\Temp\cco4TuUn.s 			page 93


 5245              	.L915:
 5246 0232 24FA08F2 		lsr	r2, r4, r8
 5247 0236 D007     		lsls	r0, r2, #31
 5248 0238 F6D5     		bpl	.L916
 5249 023a 5146     		mov	r1, r10
 5250 023c 4046     		mov	r0, r8
 5251 023e FFF7FEFF 		bl	_ZN12SmartDrivers17SetStallThresholdEji
 5252 0242 D6F8C033 		ldr	r3, [r6, #960]
 5253 0246 EFE7     		b	.L916
 5254              	.L1002:
 5255 0248 2846     		mov	r0, r5
 5256 024a FFF7FEFF 		bl	_ZN11GCodeBuffer10GetUIValueEv
 5257 024e D6F8C033 		ldr	r3, [r6, #960]
 5258 0252 1FFA80F8 		uxth	r8, r0
 5259 0256 002B     		cmp	r3, #0
 5260 0258 83D0     		beq	.L927
 5261 025a 0027     		movs	r7, #0
 5262 025c 03E0     		b	.L929
 5263              	.L928:
 5264 025e 0137     		adds	r7, r7, #1
 5265 0260 BB42     		cmp	r3, r7
 5266 0262 7FF67EAF 		bls	.L927
 5267              	.L929:
 5268 0266 24FA07F2 		lsr	r2, r4, r7
 5269 026a D007     		lsls	r0, r2, #31
 5270 026c F7D5     		bpl	.L928
 5271 026e 4146     		mov	r1, r8
 5272 0270 3846     		mov	r0, r7
 5273 0272 FFF7FEFF 		bl	_ZN12SmartDrivers11SetCoolStepEjt
 5274 0276 D6F8C033 		ldr	r3, [r6, #960]
 5275 027a F0E7     		b	.L928
 5276              	.L1001:
 5277 027c 2846     		mov	r0, r5
 5278 027e FFF7FEFF 		bl	_ZN11GCodeBuffer10GetUIValueEv
 5279 0282 D6F8C033 		ldr	r3, [r6, #960]
 5280 0286 8046     		mov	r8, r0
 5281 0288 8BB1     		cbz	r3, .L925
 5282 028a 0027     		movs	r7, #0
 5283 028c 02E0     		b	.L923
 5284              	.L924:
 5285 028e 0137     		adds	r7, r7, #1
 5286 0290 BB42     		cmp	r3, r7
 5287 0292 0CD9     		bls	.L925
 5288              	.L923:
 5289 0294 24FA07F2 		lsr	r2, r4, r7
 5290 0298 D207     		lsls	r2, r2, #31
 5291 029a F8D5     		bpl	.L924
 5292 029c 3846     		mov	r0, r7
 5293 029e 4146     		mov	r1, r8
 5294 02a0 FFF7FEFF 		bl	_ZN12SmartDrivers29SetStallMinimumStepsPerSecondEjj
 5295 02a4 D6F8C033 		ldr	r3, [r6, #960]
 5296 02a8 0137     		adds	r7, r7, #1
 5297 02aa BB42     		cmp	r3, r7
 5298 02ac F2D8     		bhi	.L923
 5299              	.L925:
 5300 02ae 5746     		mov	r7, r10
 5301 02b0 05E7     		b	.L922
ARM GAS  C:\Users\THOMAS~1.CAM\AppData\Local\Temp\cco4TuUn.s 			page 94


 5302              	.L1000:
 5303 02b2 2846     		mov	r0, r5
 5304 02b4 FFF7FEFF 		bl	_ZN11GCodeBuffer9GetIValueEv
 5305 02b8 D6F8C033 		ldr	r3, [r6, #960]
 5306 02bc A0F10108 		sub	r8, r0, #1
 5307 02c0 B8FA88F8 		clz	r8, r8
 5308 02c4 4FEA5818 		lsr	r8, r8, #5
 5309 02c8 8BB1     		cbz	r3, .L921
 5310 02ca 0027     		movs	r7, #0
 5311 02cc 02E0     		b	.L919
 5312              	.L920:
 5313 02ce 0137     		adds	r7, r7, #1
 5314 02d0 BB42     		cmp	r3, r7
 5315 02d2 0CD9     		bls	.L921
 5316              	.L919:
 5317 02d4 24FA07F2 		lsr	r2, r4, r7
 5318 02d8 D107     		lsls	r1, r2, #31
 5319 02da F8D5     		bpl	.L920
 5320 02dc 3846     		mov	r0, r7
 5321 02de 4146     		mov	r1, r8
 5322 02e0 FFF7FEFF 		bl	_ZN12SmartDrivers14SetStallFilterEjb
 5323 02e4 D6F8C033 		ldr	r3, [r6, #960]
 5324 02e8 0137     		adds	r7, r7, #1
 5325 02ea BB42     		cmp	r3, r7
 5326 02ec F2D8     		bhi	.L919
 5327              	.L921:
 5328 02ee 5746     		mov	r7, r10
 5329 02f0 DDE6     		b	.L918
 5330              	.L1003:
 5331 02f2 0124     		movs	r4, #1
 5332 02f4 9C40     		lsls	r4, r4, r3
 5333 02f6 013C     		subs	r4, r4, #1
 5334 02f8 F5E6     		b	.L936
 5335              	.L933:
 5336 02fa 06F57870 		add	r0, r6, #992
 5337 02fe 07C8     		ldm	r0, {r0, r1, r2}
 5338 0300 1840     		ands	r0, r0, r3
 5339 0302 2243     		orrs	r2, r2, r4
 5340 0304 0B40     		ands	r3, r3, r1
 5341 0306 C6F8E003 		str	r0, [r6, #992]
 5342 030a C6F8E433 		str	r3, [r6, #996]
 5343 030e C6F8E823 		str	r2, [r6, #1000]
 5344 0312 0027     		movs	r7, #0
 5345 0314 47E7     		b	.L996
 5346              	.L932:
 5347 0316 D6F8E003 		ldr	r0, [r6, #992]
 5348 031a D6F8E813 		ldr	r1, [r6, #1000]
 5349 031e D6F8E423 		ldr	r2, [r6, #996]
 5350 0322 1840     		ands	r0, r0, r3
 5351 0324 2243     		orrs	r2, r2, r4
 5352 0326 0B40     		ands	r3, r3, r1
 5353 0328 C6F8E003 		str	r0, [r6, #992]
 5354 032c C6F8E833 		str	r3, [r6, #1000]
 5355 0330 C6F8E423 		str	r2, [r6, #996]
 5356 0334 0027     		movs	r7, #0
 5357 0336 36E7     		b	.L996
 5358              	.L934:
ARM GAS  C:\Users\THOMAS~1.CAM\AppData\Local\Temp\cco4TuUn.s 			page 95


 5359 0338 D6F8E803 		ldr	r0, [r6, #1000]
 5360 033c D6F8E413 		ldr	r1, [r6, #996]
 5361 0340 D6F8E023 		ldr	r2, [r6, #992]
 5362 0344 1840     		ands	r0, r0, r3
 5363 0346 2243     		orrs	r2, r2, r4
 5364 0348 0B40     		ands	r3, r3, r1
 5365 034a C6F8E803 		str	r0, [r6, #1000]
 5366 034e C6F8E433 		str	r3, [r6, #996]
 5367 0352 C6F8E023 		str	r2, [r6, #992]
 5368 0356 0027     		movs	r7, #0
 5369 0358 25E7     		b	.L996
 5370              	.L943:
 5371 035a 0C46     		mov	r4, r1
 5372 035c 5FE6     		b	.L904
 5373              	.L1007:
 5374 035e 00BF     		.align	2
 5375              	.L1006:
 5376 0360 44000000 		.word	.LC30
 5377 0364 08000000 		.word	.LC25
 5378 0368 18000000 		.word	.LC27
 5379 036c 10000000 		.word	.LC26
 5380 0370 1C000000 		.word	.LC28
 5381 0374 00000000 		.word	reprap
 5382 0378 38000000 		.word	.LC29
 5383 037c 00000000 		.word	.LC24
 5384              		.size	_ZN8Platform23ConfigureStallDetectionER11GCodeBufferRK9StringRef, .-_ZN8Platform23ConfigureS
 5385              		.section	.text._ZNK8Platform13IsDateTimeSetEv,"ax",%progbits
 5386              		.align	1
 5387              		.p2align 2,,3
 5388              		.global	_ZNK8Platform13IsDateTimeSetEv
 5389              		.syntax unified
 5390              		.thumb
 5391              		.thumb_func
 5392              		.fpu fpv4-sp-d16
 5393              		.type	_ZNK8Platform13IsDateTimeSetEv, %function
 5394              	_ZNK8Platform13IsDateTimeSetEv:
 5395              		@ args = 0, pretend = 0, frame = 0
 5396              		@ frame_needed = 0, uses_anonymous_args = 0
 5397              		@ link register save eliminated.
 5398 0000 D0F8D029 		ldr	r2, [r0, #2512]
 5399 0004 D0F8D439 		ldr	r3, [r0, #2516]
 5400 0008 1343     		orrs	r3, r2, r3
 5401 000a 14BF     		ite	ne
 5402 000c 0120     		movne	r0, #1
 5403 000e 0020     		moveq	r0, #0
 5404 0010 7047     		bx	lr
 5405              		.size	_ZNK8Platform13IsDateTimeSetEv, .-_ZNK8Platform13IsDateTimeSetEv
 5406 0012 00BF     		.section	.text._ZNK8Platform11GetDateTimeEv,"ax",%progbits
 5407              		.align	1
 5408              		.p2align 2,,3
 5409              		.global	_ZNK8Platform11GetDateTimeEv
 5410              		.syntax unified
 5411              		.thumb
 5412              		.thumb_func
 5413              		.fpu fpv4-sp-d16
 5414              		.type	_ZNK8Platform11GetDateTimeEv, %function
 5415              	_ZNK8Platform11GetDateTimeEv:
ARM GAS  C:\Users\THOMAS~1.CAM\AppData\Local\Temp\cco4TuUn.s 			page 96


 5416              		@ args = 0, pretend = 0, frame = 0
 5417              		@ frame_needed = 0, uses_anonymous_args = 0
 5418              		@ link register save eliminated.
 5419 0000 00F51D60 		add	r0, r0, #2512
 5420 0004 D0E90001 		ldrd	r0, [r0]
 5421 0008 7047     		bx	lr
 5422              		.size	_ZNK8Platform11GetDateTimeEv, .-_ZNK8Platform11GetDateTimeEv
 5423 000a 00BF     		.section	.text._ZN8Platform7InitI2cEv,"ax",%progbits
 5424              		.align	1
 5425              		.p2align 2,,3
 5426              		.global	_ZN8Platform7InitI2cEv
 5427              		.syntax unified
 5428              		.thumb
 5429              		.thumb_func
 5430              		.fpu fpv4-sp-d16
 5431              		.type	_ZN8Platform7InitI2cEv, %function
 5432              	_ZN8Platform7InitI2cEv:
 5433              		@ args = 0, pretend = 0, frame = 0
 5434              		@ frame_needed = 0, uses_anonymous_args = 0
 5435 0000 90F8823A 		ldrb	r3, [r0, #2690]	@ zero_extendqisi2
 5436 0004 03B1     		cbz	r3, .L1016
 5437 0006 7047     		bx	lr
 5438              	.L1016:
 5439 0008 10B5     		push	{r4, lr}
 5440 000a 0446     		mov	r4, r0
 5441 000c 0348     		ldr	r0, .L1017
 5442 000e FFF7FEFF 		bl	_ZN7TwoWire5beginEv
 5443 0012 0123     		movs	r3, #1
 5444 0014 84F8823A 		strb	r3, [r4, #2690]
 5445 0018 10BD     		pop	{r4, pc}
 5446              	.L1018:
 5447 001a 00BF     		.align	2
 5448              	.L1017:
 5449 001c 00000000 		.word	Wire
 5450              		.size	_ZN8Platform7InitI2cEv, .-_ZN8Platform7InitI2cEv
 5451              		.section	.text._ZN8Platform6RandomEv,"ax",%progbits
 5452              		.align	1
 5453              		.p2align 2,,3
 5454              		.global	_ZN8Platform6RandomEv
 5455              		.syntax unified
 5456              		.thumb
 5457              		.thumb_func
 5458              		.fpu fpv4-sp-d16
 5459              		.type	_ZN8Platform6RandomEv, %function
 5460              	_ZN8Platform6RandomEv:
 5461              		@ args = 0, pretend = 0, frame = 0
 5462              		@ frame_needed = 0, uses_anonymous_args = 0
 5463              		@ link register save eliminated.
 5464 0000 10B4     		push	{r4}
 5465 0002 074A     		ldr	r2, .L1021
 5466 0004 D0E93A34 		ldrd	r3, r4, [r0, #232]
 5467 0008 D2F89010 		ldr	r1, [r2, #144]
 5468 000c D0E93C20 		ldrd	r2, r0, [r0, #240]
 5469 0010 6340     		eors	r3, r3, r4
 5470 0012 4B40     		eors	r3, r3, r1
 5471 0014 5340     		eors	r3, r3, r2
 5472 0016 5840     		eors	r0, r0, r3
ARM GAS  C:\Users\THOMAS~1.CAM\AppData\Local\Temp\cco4TuUn.s 			page 97


 5473 0018 5DF8044B 		ldr	r4, [sp], #4
 5474 001c 7047     		bx	lr
 5475              	.L1022:
 5476 001e 00BF     		.align	2
 5477              	.L1021:
 5478 0020 00000940 		.word	1074331648
 5479              		.size	_ZN8Platform6RandomEv, .-_ZN8Platform6RandomEv
 5480              		.section	.text.hot.TC2_Handler,"ax",%progbits
 5481              		.align	1
 5482              		.p2align 2,,3
 5483              		.global	TC2_Handler
 5484              		.syntax unified
 5485              		.thumb
 5486              		.thumb_func
 5487              		.fpu fpv4-sp-d16
 5488              		.type	TC2_Handler, %function
 5489              	TC2_Handler:
 5490              		@ args = 0, pretend = 0, frame = 0
 5491              		@ frame_needed = 0, uses_anonymous_args = 0
 5492 0000 38B5     		push	{r3, r4, r5, lr}
 5493 0002 0F4B     		ldr	r3, .L1036
 5494 0004 D3F8A040 		ldr	r4, [r3, #160]
 5495 0008 D3F8AC20 		ldr	r2, [r3, #172]
 5496 000c 1440     		ands	r4, r4, r2
 5497 000e 6207     		lsls	r2, r4, #29
 5498 0010 0BD5     		bpl	.L1024
 5499 0012 0C49     		ldr	r1, .L1036+4
 5500 0014 0422     		movs	r2, #4
 5501 0016 0D69     		ldr	r5, [r1, #16]
 5502 0018 C3F8A820 		str	r2, [r3, #168]
 5503 001c 2B68     		ldr	r3, [r5]
 5504 001e 23B1     		cbz	r3, .L1024
 5505              	.L1025:
 5506 0020 2868     		ldr	r0, [r5]
 5507 0022 FFF7FEFF 		bl	_ZN3DDA4StepEv
 5508 0026 0028     		cmp	r0, #0
 5509 0028 FAD1     		bne	.L1025
 5510              	.L1024:
 5511 002a 2307     		lsls	r3, r4, #28
 5512 002c 00D4     		bmi	.L1035
 5513 002e 38BD     		pop	{r3, r4, r5, pc}
 5514              	.L1035:
 5515 0030 034B     		ldr	r3, .L1036
 5516 0032 0822     		movs	r2, #8
 5517 0034 C3F8A820 		str	r2, [r3, #168]
 5518 0038 BDE83840 		pop	{r3, r4, r5, lr}
 5519 003c FFF7FEBF 		b	_ZN9SoftTimer9InterruptEv
 5520              	.L1037:
 5521              		.align	2
 5522              	.L1036:
 5523 0040 00000940 		.word	1074331648
 5524 0044 00000000 		.word	reprap
 5525              		.size	TC2_Handler, .-TC2_Handler
 5526              		.section	.text.hot._ZN8Platform21ScheduleStepInterruptEm,"ax",%progbits
 5527              		.align	1
 5528              		.p2align 2,,3
 5529              		.global	_ZN8Platform21ScheduleStepInterruptEm
ARM GAS  C:\Users\THOMAS~1.CAM\AppData\Local\Temp\cco4TuUn.s 			page 98


 5530              		.syntax unified
 5531              		.thumb
 5532              		.thumb_func
 5533              		.fpu fpv4-sp-d16
 5534              		.type	_ZN8Platform21ScheduleStepInterruptEm, %function
 5535              	_ZN8Platform21ScheduleStepInterruptEm:
 5536              		@ args = 0, pretend = 0, frame = 0
 5537              		@ frame_needed = 0, uses_anonymous_args = 0
 5538              		@ link register save eliminated.
 5539 0000 30B4     		push	{r4, r5}
 5540              		.syntax unified
 5541              	@ 470 "C:\Users\thomas.camguilhem\Documents\Duet Firmwares\RepRapFirmware-1.21_lynxrev_1.7\CoreNG\a
 5542 0002 EFF31085 		MRS r5, primask
 5543              	@ 0 "" 2
 5544              	@ 330 "C:\Users\thomas.camguilhem\Documents\Duet Firmwares\RepRapFirmware-1.21_lynxrev_1.7\CoreNG\a
 5545 0006 72B6     		cpsid i
 5546              	@ 0 "" 2
 5547              	@ 456 "C:\Users\thomas.camguilhem\Documents\Duet Firmwares\RepRapFirmware-1.21_lynxrev_1.7\CoreNG\a
 5548 0008 BFF35F8F 		dmb
 5549              	@ 0 "" 2
 5550              		.thumb
 5551              		.syntax unified
 5552 000c 114C     		ldr	r4, .L1046
 5553 000e 1249     		ldr	r1, .L1046+4
 5554 0010 0023     		movs	r3, #0
 5555 0012 2370     		strb	r3, [r4]
 5556 0014 D1F89020 		ldr	r2, [r1, #144]
 5557 0018 821A     		subs	r2, r0, r2
 5558 001a 052A     		cmp	r2, #5
 5559 001c 03DC     		bgt	.L1039
 5560 001e 0120     		movs	r0, #1
 5561 0020 95B1     		cbz	r5, .L1044
 5562 0022 30BC     		pop	{r4, r5}
 5563 0024 7047     		bx	lr
 5564              	.L1039:
 5565 0026 0422     		movs	r2, #4
 5566 0028 C1F89400 		str	r0, [r1, #148]
 5567 002c C1F8A420 		str	r2, [r1, #164]
 5568 0030 15B1     		cbz	r5, .L1045
 5569 0032 1846     		mov	r0, r3
 5570 0034 30BC     		pop	{r4, r5}
 5571 0036 7047     		bx	lr
 5572              	.L1045:
 5573 0038 0123     		movs	r3, #1
 5574 003a 2370     		strb	r3, [r4]
 5575              		.syntax unified
 5576              	@ 456 "C:\Users\thomas.camguilhem\Documents\Duet Firmwares\RepRapFirmware-1.21_lynxrev_1.7\CoreNG\a
 5577 003c BFF35F8F 		dmb
 5578              	@ 0 "" 2
 5579              	@ 319 "C:\Users\thomas.camguilhem\Documents\Duet Firmwares\RepRapFirmware-1.21_lynxrev_1.7\CoreNG\a
 5580 0040 62B6     		cpsie i
 5581              	@ 0 "" 2
 5582              		.thumb
 5583              		.syntax unified
 5584 0042 2846     		mov	r0, r5
 5585 0044 30BC     		pop	{r4, r5}
 5586 0046 7047     		bx	lr
ARM GAS  C:\Users\THOMAS~1.CAM\AppData\Local\Temp\cco4TuUn.s 			page 99


 5587              	.L1044:
 5588 0048 2070     		strb	r0, [r4]
 5589              		.syntax unified
 5590              	@ 456 "C:\Users\thomas.camguilhem\Documents\Duet Firmwares\RepRapFirmware-1.21_lynxrev_1.7\CoreNG\a
 5591 004a BFF35F8F 		dmb
 5592              	@ 0 "" 2
 5593              	@ 319 "C:\Users\thomas.camguilhem\Documents\Duet Firmwares\RepRapFirmware-1.21_lynxrev_1.7\CoreNG\a
 5594 004e 62B6     		cpsie i
 5595              	@ 0 "" 2
 5596              		.thumb
 5597              		.syntax unified
 5598 0050 30BC     		pop	{r4, r5}
 5599 0052 7047     		bx	lr
 5600              	.L1047:
 5601              		.align	2
 5602              	.L1046:
 5603 0054 00000000 		.word	g_interrupt_enabled
 5604 0058 00000940 		.word	1074331648
 5605              		.size	_ZN8Platform21ScheduleStepInterruptEm, .-_ZN8Platform21ScheduleStepInterruptEm
 5606              		.section	.text._ZN8Platform20DisableStepInterruptEv,"ax",%progbits
 5607              		.align	1
 5608              		.p2align 2,,3
 5609              		.global	_ZN8Platform20DisableStepInterruptEv
 5610              		.syntax unified
 5611              		.thumb
 5612              		.thumb_func
 5613              		.fpu fpv4-sp-d16
 5614              		.type	_ZN8Platform20DisableStepInterruptEv, %function
 5615              	_ZN8Platform20DisableStepInterruptEv:
 5616              		@ args = 0, pretend = 0, frame = 0
 5617              		@ frame_needed = 0, uses_anonymous_args = 0
 5618              		@ link register save eliminated.
 5619 0000 024B     		ldr	r3, .L1049
 5620 0002 0422     		movs	r2, #4
 5621 0004 C3F8A820 		str	r2, [r3, #168]
 5622 0008 7047     		bx	lr
 5623              	.L1050:
 5624 000a 00BF     		.align	2
 5625              	.L1049:
 5626 000c 00000940 		.word	1074331648
 5627              		.size	_ZN8Platform20DisableStepInterruptEv, .-_ZN8Platform20DisableStepInterruptEv
 5628              		.section	.text._ZN8Platform26ScheduleSoftTimerInterruptEm,"ax",%progbits
 5629              		.align	1
 5630              		.p2align 2,,3
 5631              		.global	_ZN8Platform26ScheduleSoftTimerInterruptEm
 5632              		.syntax unified
 5633              		.thumb
 5634              		.thumb_func
 5635              		.fpu fpv4-sp-d16
 5636              		.type	_ZN8Platform26ScheduleSoftTimerInterruptEm, %function
 5637              	_ZN8Platform26ScheduleSoftTimerInterruptEm:
 5638              		@ args = 0, pretend = 0, frame = 0
 5639              		@ frame_needed = 0, uses_anonymous_args = 0
 5640              		@ link register save eliminated.
 5641 0000 30B4     		push	{r4, r5}
 5642              		.syntax unified
 5643              	@ 470 "C:\Users\thomas.camguilhem\Documents\Duet Firmwares\RepRapFirmware-1.21_lynxrev_1.7\CoreNG\a
ARM GAS  C:\Users\THOMAS~1.CAM\AppData\Local\Temp\cco4TuUn.s 			page 100


 5644 0002 EFF31085 		MRS r5, primask
 5645              	@ 0 "" 2
 5646              	@ 330 "C:\Users\thomas.camguilhem\Documents\Duet Firmwares\RepRapFirmware-1.21_lynxrev_1.7\CoreNG\a
 5647 0006 72B6     		cpsid i
 5648              	@ 0 "" 2
 5649              	@ 456 "C:\Users\thomas.camguilhem\Documents\Duet Firmwares\RepRapFirmware-1.21_lynxrev_1.7\CoreNG\a
 5650 0008 BFF35F8F 		dmb
 5651              	@ 0 "" 2
 5652              		.thumb
 5653              		.syntax unified
 5654 000c 114C     		ldr	r4, .L1059
 5655 000e 1249     		ldr	r1, .L1059+4
 5656 0010 0023     		movs	r3, #0
 5657 0012 2370     		strb	r3, [r4]
 5658 0014 D1F89020 		ldr	r2, [r1, #144]
 5659 0018 821A     		subs	r2, r0, r2
 5660 001a 052A     		cmp	r2, #5
 5661 001c 03DC     		bgt	.L1052
 5662 001e 0120     		movs	r0, #1
 5663 0020 95B1     		cbz	r5, .L1057
 5664 0022 30BC     		pop	{r4, r5}
 5665 0024 7047     		bx	lr
 5666              	.L1052:
 5667 0026 0822     		movs	r2, #8
 5668 0028 C1F89800 		str	r0, [r1, #152]
 5669 002c C1F8A420 		str	r2, [r1, #164]
 5670 0030 15B1     		cbz	r5, .L1058
 5671 0032 1846     		mov	r0, r3
 5672 0034 30BC     		pop	{r4, r5}
 5673 0036 7047     		bx	lr
 5674              	.L1058:
 5675 0038 0123     		movs	r3, #1
 5676 003a 2370     		strb	r3, [r4]
 5677              		.syntax unified
 5678              	@ 456 "C:\Users\thomas.camguilhem\Documents\Duet Firmwares\RepRapFirmware-1.21_lynxrev_1.7\CoreNG\a
 5679 003c BFF35F8F 		dmb
 5680              	@ 0 "" 2
 5681              	@ 319 "C:\Users\thomas.camguilhem\Documents\Duet Firmwares\RepRapFirmware-1.21_lynxrev_1.7\CoreNG\a
 5682 0040 62B6     		cpsie i
 5683              	@ 0 "" 2
 5684              		.thumb
 5685              		.syntax unified
 5686 0042 2846     		mov	r0, r5
 5687 0044 30BC     		pop	{r4, r5}
 5688 0046 7047     		bx	lr
 5689              	.L1057:
